

Microchip MPLAB XC8 Assembler V2.40 build 20220703182018 
                                                                                               Fri Mar 03 00:42:10 2023

Microchip MPLAB XC8 C Compiler v2.40 (Free license) build 20220703182018 Og1 
     1                           	processor	18F67K40
     2                           	fnconf	rparam,??,?,0
     3                           	pagewidth 120
     4                           	opt	flic
     5                           	psect	idataCOMRAM,global,class=CODE,delta=1,noexec
     6                           	psect	smallconst,global,reloc=2,class=SMALLCONST,delta=1,noexec
     7                           	psect	cinit,global,reloc=2,class=CODE,delta=1
     8                           	psect	bssCOMRAM,global,class=COMRAM,space=1,delta=1,lowdata,noexec
     9                           	psect	dataCOMRAM,global,class=COMRAM,space=1,delta=1,lowdata,noexec
    10                           	psect	bssBANK0,global,class=BANK0,space=1,delta=1,lowdata,noexec
    11                           	psect	bssBANK1,global,class=BANK1,space=1,delta=1,lowdata,noexec
    12                           	psect	cstackBANK1,global,class=BANK1,space=1,delta=1,lowdata,noexec
    13                           	psect	cstackBANK0,global,class=BANK0,space=1,delta=1,lowdata,noexec
    14                           	psect	cstackCOMRAM,global,class=COMRAM,space=1,delta=1,lowdata,noexec
    15                           	psect	text0,global,reloc=2,class=CODE,delta=1
    16                           	psect	text1,global,reloc=2,class=CODE,delta=1,group=3
    17                           	psect	text2,global,reloc=2,class=CODE,delta=1,group=1
    18                           	psect	text3,global,reloc=2,class=CODE,delta=1,group=1
    19                           	psect	text4,global,reloc=2,class=CODE,delta=1,group=1
    20                           	psect	text5,global,reloc=2,class=CODE,delta=1,group=1
    21                           	psect	text6,global,reloc=2,class=CODE,delta=1,group=3
    22                           	psect	text7,global,reloc=2,class=CODE,delta=1,group=3
    23                           	psect	text8,global,reloc=2,class=CODE,delta=1,group=3
    24                           	psect	text9,global,reloc=2,class=CODE,delta=1,group=3
    25                           	psect	text10,global,reloc=2,class=CODE,delta=1,group=2
    26                           	psect	text11,global,reloc=2,class=CODE,delta=1,group=2
    27                           	psect	text12,global,reloc=2,class=CODE,delta=1,group=3
    28                           	psect	text13,global,reloc=2,class=CODE,delta=1,group=3
    29                           	psect	text14,global,reloc=2,class=CODE,delta=1,group=3
    30                           	psect	text15,global,reloc=2,class=CODE,delta=1,group=2
    31                           	psect	text16,global,reloc=2,class=CODE,delta=1
    32                           	psect	text17,global,reloc=2,class=CODE,delta=1
    33                           	psect	text18,global,reloc=2,class=CODE,delta=1
    34                           	psect	text19,global,reloc=2,class=CODE,delta=1
    35                           	psect	text20,global,reloc=2,class=CODE,delta=1
    36                           	psect	text21,global,reloc=2,class=CODE,delta=1
    37                           	psect	text22,global,reloc=2,class=CODE,delta=1,group=2
    38                           	psect	text23,global,reloc=2,class=CODE,delta=1,group=2
    39                           	psect	text24,global,reloc=2,class=CODE,delta=1,group=2
    40                           	psect	text25,global,reloc=2,class=CODE,delta=1,group=2
    41                           	psect	text26,global,reloc=2,class=CODE,delta=1
    42                           	psect	text27,global,reloc=2,class=CODE,delta=1
    43                           	psect	text28,global,reloc=2,class=CODE,delta=1
    44                           	psect	text29,global,reloc=2,class=CODE,delta=1
    45                           	psect	text30,global,reloc=2,class=CODE,delta=1
    46                           	psect	text31,global,reloc=2,class=CODE,delta=1
    47                           	psect	text32,global,reloc=2,class=CODE,delta=1
    48                           	psect	text33,global,reloc=2,class=CODE,delta=1
    49                           	psect	text34,global,reloc=2,class=CODE,delta=1
    50                           	psect	text35,global,reloc=2,class=CODE,delta=1
    51                           	psect	text36,global,reloc=2,class=CODE,delta=1
    52                           	psect	text37,global,reloc=2,class=CODE,delta=1
    53                           	psect	text38,global,reloc=2,class=CODE,delta=1
    54                           	psect	text39,global,reloc=2,class=CODE,delta=1
    55                           	psect	text40,global,reloc=2,class=CODE,delta=1
    56                           	psect	text41,global,reloc=2,class=CODE,delta=1
    57                           	psect	text42,global,reloc=2,class=CODE,delta=1
    58                           	psect	text43,global,reloc=2,class=CODE,delta=1
    59                           	psect	text44,global,reloc=2,class=CODE,delta=1
    60                           	psect	text45,global,reloc=2,class=CODE,delta=1
    61                           	psect	text46,global,reloc=2,class=CODE,delta=1
    62                           	psect	text47,global,reloc=2,class=CODE,delta=1
    63                           	psect	intcodelo,global,reloc=2,class=CODE,delta=1
    64                           	psect	intcode,global,reloc=2,class=CODE,delta=1
    65                           	psect	intcode_body,global,reloc=2,class=CODE,delta=1
    66                           	psect	text50,global,reloc=2,class=CODE,delta=1
    67                           	psect	text51,global,reloc=2,class=CODE,delta=1
    68                           	psect	text52,global,reloc=2,class=CODE,delta=1
    69                           	psect	text53,global,reloc=2,class=CODE,delta=1
    70                           	psect	text54,global,reloc=2,class=CODE,delta=1
    71                           	psect	text55,global,reloc=2,class=CODE,delta=1
    72                           	psect	text56,global,reloc=2,class=CODE,delta=1
    73                           	psect	text57,global,reloc=2,class=CODE,delta=1
    74                           	psect	text58,global,reloc=2,class=CODE,delta=1
    75                           	psect	text59,global,reloc=2,class=CODE,delta=1
    76                           	psect	intsave_regs,global,class=BIGRAM,space=1,delta=1,noexec
    77                           	psect	rparam,global,class=COMRAM,space=1,delta=1,noexec
    78                           	psect	temp,global,ovrld,common,class=COMRAM,space=1,delta=1
    79                           	psect	idloc,global,abs,ovrld,class=IDLOC,space=5,delta=1,noexec
    80                           	psect	config,global,abs,ovrld,class=CONFIG,space=4,delta=1,noexec
    81   000000                     
    82                           ; Generated 06/04/2022 GMT
    83                           ; 
    84                           ; Copyright © 2022, Microchip Technology Inc. and its subsidiaries ("Microchip")
    85                           ; All rights reserved.
    86                           ; 
    87                           ; This software is developed by Microchip Technology Inc. and its subsidiaries ("Microch
      +                          ip").
    88                           ; 
    89                           ; Redistribution and use in source and binary forms, with or without modification, are
    90                           ; permitted provided that the following conditions are met:
    91                           ; 
    92                           ;     1. Redistributions of source code must retain the above copyright notice, this lis
      +                          t of
    93                           ;        conditions and the following disclaimer.
    94                           ; 
    95                           ;     2. Redistributions in binary form must reproduce the above copyright notice, this 
      +                          list
    96                           ;        of conditions and the following disclaimer in the documentation and/or other
    97                           ;        materials provided with the distribution. Publication is not required when
    98                           ;        this file is used in an embedded application.
    99                           ; 
   100                           ;     3. Microchip's name may not be used to endorse or promote products derived from th
      +                          is
   101                           ;        software without specific prior written permission.
   102                           ; 
   103                           ; THIS SOFTWARE IS PROVIDED BY MICROCHIP "AS IS" AND ANY EXPRESS OR IMPLIED WARRANTIES,
   104                           ; INCLUDING, BUT NOT LIMITED TO, THE IMPLIED WARRANTIES OF MERCHANTABILITY AND FITNESS F
      +                          OR
   105                           ; PURPOSE ARE DISCLAIMED.  IN NO EVENT SHALL MICROCHIP BE LIABLE FOR ANY DIRECT, INDIREC
      +                          T,
   106                           ; INCIDENTAL, SPECIAL, EXEMPLARY, OR CONSEQUENTIAL DAMAGES (INCLUDING BUT NOT LIMITED TO
   107                           ; PROCUREMENT OF SUBSTITUTE GOODS OR SERVICES; LOSS OF USE, DATA OR PROFITS; OR BUSINESS
   108                           ; INTERRUPTION) HOWSOEVER CAUSED AND ON ANY THEORY OF LIABILITY, WHETHER IN CONTRACT, ST
      +                          RICT
   109                           ; LIABILITY, OR TORT (INCLUDING NEGLIGENCE OR OTHERWISE) ARISING IN ANY WAY OUT OF THE U
      +                          SE OF
   110                           ; THIS SOFTWARE, EVEN IF ADVISED OF THE POSSIBILITY OF SUCH DAMAGE.
   111                           ; 
   112                           ; 
   113                           ; Code-generator required, PIC18F67K40 Definitions
   114                           ; 
   115                           ; SFR Addresses
   116   000000                     
   117                           	psect	idataCOMRAM
   118   00323C                     __pidataCOMRAM:
   119                           	callstack 0
   120                           
   121                           ;initializer for _int_threshold_high
   122   00323C  09C4               	dw	2500
   123   000000                     _TRISBbits	set	3970
   124   000000                     _TX4REG	set	3812
   125   000000                     _RC4STAbits	set	3815
   126   000000                     _SP4BRGH	set	3814
   127   000000                     _TRISCbits	set	3971
   128   000000                     _TRISEbits	set	3973
   129   000000                     _TRISFbits	set	3974
   130   000000                     _TRISGbits	set	3975
   131   000000                     _SSP2CON2bits	set	3802
   132   000000                     _INT1PPS	set	3569
   133   000000                     _RX4PPS	set	3605
   134   000000                     _SSP2CLKPPS	set	3612
   135   000000                     _SSP2DATPPS	set	3613
   136   000000                     _ANSELDbits	set	3751
   137   000000                     _SSP2ADD	set	3798
   138   000000                     _SSP2CON1bits	set	3801
   139   000000                     _RC4REG	set	3811
   140   000000                     _SP4BRGL	set	3813
   141   000000                     _TX4STAbits	set	3816
   142   000000                     _BAUD4CONbits	set	3817
   143   000000                     _CCPR4H	set	3873
   144   000000                     _CCPR3H	set	3877
   145   000000                     _LATAbits	set	3961
   146   000000                     _LATGbits	set	3967
   147   000000                     _LATHbits	set	3968
   148   000000                     _TRISAbits	set	3969
   149   000000                     _SSP2CON2	set	3802
   150   000000                     _TRISDbits	set	3972
   151   000000                     _SSP2STAT	set	3800
   152   000000                     _SSP2BUF	set	3797
   153   000000                     _IPR0bits	set	3615
   154   000000                     _PIE0bits	set	3625
   155   000000                     _PIE4bits	set	3629
   156   000000                     _PIR4bits	set	3639
   157   000000                     _RC0PPS	set	3682
   158   000000                     _RC7PPS	set	3689
   159   000000                     _RD5PPS	set	3695
   160   000000                     _RE2PPS	set	3700
   161   000000                     _RD6PPS	set	3696
   162   000000                     _CCPR2H	set	4006
   163   000000                     _CCPR1H	set	4010
   164   000000                     _T2PR	set	4028
   165   000000                     _T2CONbits	set	4029
   166   000000                     _TRISHbits	set	3976
   167   000000                     _LATCbits	set	3963
   168   000000                     _LATEbits	set	3965
   169   000000                     _LATFbits	set	3966
   170   000000                     _RE4PPS	set	3702
   171   000000                     _RG6PPS	set	3720
   172   000000                     _ANSELBbits	set	3738
   173   000000                     _TMR0L	set	4051
   174   000000                     _TMR0H	set	4052
   175   000000                     _T0CON0bits	set	4053
   176   000000                     _T0CON1bits	set	4054
   177   000000                     _T2CLKCONbits	set	4031
   178   000000                     _T2HLTbits	set	4030
   179   000000                     _CCP1CONbits	set	4011
   180   000000                     _CCPTMRS0bits	set	4013
   181   000000                     _CCP2CONbits	set	4007
   182   000000                     _CCP3CONbits	set	3878
   183   000000                     _CCP4CONbits	set	3874
   184   000000                     _PIR0bits	set	3635
   185   000000                     _INTCONbits	set	4082
   186                           
   187                           	psect	smallconst
   188   000E00                     __psmallconst:
   189                           	callstack 0
   190   000E00  00                 	db	0
   191   000E01                     STR_1:
   192   000E01  0A                 	db	10
   193   000E02  43                 	db	67	;'C'
   194   000E03  6F                 	db	111	;'o'
   195   000E04  6C                 	db	108	;'l'
   196   000E05  6F                 	db	111	;'o'
   197   000E06  72                 	db	114	;'r'
   198   000E07  20                 	db	32
   199   000E08  44                 	db	68	;'D'
   200   000E09  65                 	db	101	;'e'
   201   000E0A  74                 	db	116	;'t'
   202   000E0B  65                 	db	101	;'e'
   203   000E0C  63                 	db	99	;'c'
   204   000E0D  74                 	db	116	;'t'
   205   000E0E  65                 	db	101	;'e'
   206   000E0F  64                 	db	100	;'d'
   207   000E10  20                 	db	32
   208   000E11  3D                 	db	61	;'='
   209   000E12  20                 	db	32
   210   000E13  25                 	db	37
   211   000E14  30                 	db	48	;'0'
   212   000E15  32                 	db	50	;'2'
   213   000E16  64                 	db	100	;'d'
   214   000E17  20                 	db	32
   215   000E18  25                 	db	37
   216   000E19  30                 	db	48	;'0'
   217   000E1A  35                 	db	53	;'5'
   218   000E1B  64                 	db	100	;'d'
   219   000E1C  20                 	db	32
   220   000E1D  25                 	db	37
   221   000E1E  30                 	db	48	;'0'
   222   000E1F  35                 	db	53	;'5'
   223   000E20  64                 	db	100	;'d'
   224   000E21  20                 	db	32
   225   000E22  25                 	db	37
   226   000E23  30                 	db	48	;'0'
   227   000E24  35                 	db	53	;'5'
   228   000E25  64                 	db	100	;'d'
   229   000E26  0A                 	db	10
   230   000E27  00                 	db	0
   231   000E28  00                 	db	0	; dummy byte at the end
   232   000000                     
   233                           ; #config settings
   234                           
   235                           	psect	cinit
   236   002D76                     __pcinit:
   237                           	callstack 0
   238   002D76                     start_initialization:
   239                           	callstack 0
   240   002D76                     __initialization:
   241                           	callstack 0
   242                           
   243                           ; Initialize objects allocated to COMRAM (2 bytes)
   244                           ; load TBLPTR registers with __pidataCOMRAM
   245   002D76  0E3C               	movlw	low __pidataCOMRAM
   246   002D78  6EF6               	movwf	tblptrl,c
   247   002D7A  0E32               	movlw	high __pidataCOMRAM
   248   002D7C  6EF7               	movwf	tblptrh,c
   249   002D7E  0E00               	movlw	low (__pidataCOMRAM shr (0+16))
   250   002D80  6EF8               	movwf	tblptru,c
   251   002D82  0009               	tblrd		*+	;fetch initializer
   252   002D84  CFF5 F052          	movff	tablat,__pdataCOMRAM
   253   002D88  0009               	tblrd		*+	;fetch initializer
   254   002D8A  CFF5 F053          	movff	tablat,__pdataCOMRAM+1
   255                           
   256                           ; Clear objects allocated to BANK1 (60 bytes)
   257   002D8E  EE01  F000         	lfsr	0,__pbssBANK1
   258   002D92  0E3C               	movlw	60
   259   002D94                     clear_0:
   260   002D94  6AEE               	clrf	postinc0,c
   261   002D96  06E8               	decf	wreg,f,c
   262   002D98  E1FD               	bnz	clear_0
   263                           
   264                           ; Clear objects allocated to BANK0 (56 bytes)
   265   002D9A  EE00  F09E         	lfsr	0,__pbssBANK0
   266   002D9E  0E38               	movlw	56
   267   002DA0                     clear_1:
   268   002DA0  6AEE               	clrf	postinc0,c
   269   002DA2  06E8               	decf	wreg,f,c
   270   002DA4  E1FD               	bnz	clear_1
   271                           
   272                           ; Clear objects allocated to COMRAM (9 bytes)
   273   002DA6  EE00  F049         	lfsr	0,__pbssCOMRAM
   274   002DAA  0E09               	movlw	9
   275   002DAC                     clear_2:
   276   002DAC  6AEE               	clrf	postinc0,c
   277   002DAE  06E8               	decf	wreg,f,c
   278   002DB0  E1FD               	bnz	clear_2
   279   002DB2                     end_of_initialization:
   280                           	callstack 0
   281   002DB2                     __end_of__initialization:
   282                           	callstack 0
   283   002DB2  9054               	bcf	int$flags,0,c	;clear compiler interrupt flag (level 1)
   284   002DB4  9254               	bcf	int$flags,1,c	;clear compiler interrupt flag (level 2)
   285   002DB6  0100               	movlb	0
   286   002DB8  EFD6  F013         	goto	_main	;jump to C main() function
   287                           
   288                           	psect	bssCOMRAM
   289   000049                     __pbssCOMRAM:
   290                           	callstack 0
   291   000049                     _prec:
   292                           	callstack 0
   293   000049                     	ds	2
   294   00004B                     _int_threshold_low:
   295                           	callstack 0
   296   00004B                     	ds	2
   297   00004D                     _flags:
   298                           	callstack 0
   299   00004D                     	ds	1
   300   00004E                     _TxBufReadCnt:
   301                           	callstack 0
   302   00004E                     	ds	1
   303   00004F                     _TxBufWriteCnt:
   304                           	callstack 0
   305   00004F                     	ds	1
   306   000050                     _RxBufReadCnt:
   307                           	callstack 0
   308   000050                     	ds	1
   309   000051                     _RxBufWriteCnt:
   310                           	callstack 0
   311   000051                     	ds	1
   312                           
   313                           	psect	dataCOMRAM
   314   000052                     __pdataCOMRAM:
   315                           	callstack 0
   316   000052                     _int_threshold_high:
   317                           	callstack 0
   318   000052                     	ds	2
   319                           
   320                           	psect	bssBANK0
   321   00009E                     __pbssBANK0:
   322                           	callstack 0
   323   00009E                     _EUSART4RXbuf:
   324                           	callstack 0
   325   00009E                     	ds	20
   326   0000B2                     _width:
   327                           	callstack 0
   328   0000B2                     	ds	2
   329   0000B4                     _tmr_ovf:
   330                           	callstack 0
   331   0000B4                     	ds	1
   332   0000B5                     _color_flag:
   333                           	callstack 0
   334   0000B5                     	ds	1
   335   0000B6                     _dbuf:
   336                           	callstack 0
   337   0000B6                     	ds	32
   338                           
   339                           	psect	bssBANK1
   340   000100                     __pbssBANK1:
   341                           	callstack 0
   342   000100                     _EUSART4TXbuf:
   343                           	callstack 0
   344   000100                     	ds	60
   345                           
   346                           	psect	cstackBANK1
   347   00013C                     __pcstackBANK1:
   348                           	callstack 0
   349   00013C                     main@string2:
   350                           	callstack 0
   351                           
   352                           ; 40 bytes @ 0x0
   353   00013C                     	ds	40
   354   000164                     main@color_detected:
   355                           	callstack 0
   356                           
   357                           ; 1 bytes @ 0x28
   358   000164                     	ds	1
   359   000165                     main@cont:
   360                           	callstack 0
   361                           
   362                           ; 1 bytes @ 0x29
   363   000165                     	ds	1
   364   000166                     main@initial_color:
   365                           	callstack 0
   366                           
   367                           ; 8 bytes @ 0x2A
   368   000166                     	ds	8
   369                           
   370                           	psect	cstackBANK0
   371   000060                     __pcstackBANK0:
   372                           	callstack 0
   373   000060                     ___flmul@sign:
   374                           	callstack 0
   375   000060                     _dtoa$2396:
   376                           	callstack 0
   377                           
   378                           ; 2 bytes @ 0x0
   379   000060                     	ds	1
   380   000061                     ___flmul@aexp:
   381                           	callstack 0
   382                           
   383                           ; 1 bytes @ 0x1
   384   000061                     	ds	1
   385   000062                     dtoa@p:
   386                           	callstack 0
   387   000062                     ___flmul@grs:
   388                           	callstack 0
   389                           
   390                           ; 4 bytes @ 0x2
   391   000062                     	ds	2
   392   000064                     dtoa@w:
   393                           	callstack 0
   394                           
   395                           ; 2 bytes @ 0x4
   396   000064                     	ds	2
   397   000066                     ___flmul@bexp:
   398                           	callstack 0
   399   000066                     dtoa@n:
   400                           	callstack 0
   401                           
   402                           ; 8 bytes @ 0x6
   403   000066                     	ds	1
   404   000067                     ___flmul@prod:
   405                           	callstack 0
   406                           
   407                           ; 4 bytes @ 0x7
   408   000067                     	ds	4
   409   00006B                     ___flmul@temp:
   410                           	callstack 0
   411                           
   412                           ; 2 bytes @ 0xB
   413   00006B                     	ds	2
   414   00006D                     detect_color@tempval:
   415                           	callstack 0
   416                           
   417                           ; 8 bytes @ 0xD
   418   00006D                     	ds	1
   419   00006E                     dtoa@s:
   420                           	callstack 0
   421                           
   422                           ; 1 bytes @ 0xE
   423   00006E                     	ds	1
   424   00006F                     dtoa@i:
   425                           	callstack 0
   426                           
   427                           ; 2 bytes @ 0xF
   428   00006F                     	ds	2
   429   000071                     vfpfcnvrt@convarg:
   430                           	callstack 0
   431                           
   432                           ; 8 bytes @ 0x11
   433   000071                     	ds	4
   434   000075                     ??_detect_color:
   435                           
   436                           ; 1 bytes @ 0x15
   437   000075                     	ds	2
   438   000077                     detect_color@color:
   439                           	callstack 0
   440                           
   441                           ; 1 bytes @ 0x17
   442   000077                     	ds	1
   443   000078                     detect_color@dist_R:
   444                           	callstack 0
   445                           
   446                           ; 1 bytes @ 0x18
   447   000078                     	ds	1
   448   000079                     detect_color@dist_G:
   449                           	callstack 0
   450   000079                     vfpfcnvrt@done:
   451                           	callstack 0
   452                           
   453                           ; 2 bytes @ 0x19
   454   000079                     	ds	1
   455   00007A                     detect_color@dist_B:
   456                           	callstack 0
   457                           
   458                           ; 1 bytes @ 0x1A
   459   00007A                     	ds	1
   460   00007B                     vfpfcnvrt@cp:
   461                           	callstack 0
   462                           
   463                           ; 2 bytes @ 0x1B
   464   00007B                     	ds	2
   465   00007D                     ?_vfprintf:
   466                           	callstack 0
   467   00007D                     vfprintf@fp:
   468                           	callstack 0
   469                           
   470                           ; 2 bytes @ 0x1D
   471   00007D                     	ds	2
   472   00007F                     vfprintf@fmt:
   473                           	callstack 0
   474                           
   475                           ; 2 bytes @ 0x1F
   476   00007F                     	ds	2
   477   000081                     vfprintf@ap:
   478                           	callstack 0
   479                           
   480                           ; 2 bytes @ 0x21
   481   000081                     	ds	2
   482   000083                     ?_sprintf:
   483                           	callstack 0
   484   000083                     sprintf@s:
   485                           	callstack 0
   486                           
   487                           ; 2 bytes @ 0x23
   488   000083                     	ds	2
   489   000085                     sprintf@fmt:
   490                           	callstack 0
   491                           
   492                           ; 2 bytes @ 0x25
   493   000085                     	ds	10
   494   00008F                     sprintf@ap:
   495                           	callstack 0
   496                           
   497                           ; 2 bytes @ 0x2F
   498   00008F                     	ds	2
   499   000091                     sprintf@f:
   500                           	callstack 0
   501                           
   502                           ; 11 bytes @ 0x31
   503   000091                     	ds	11
   504   00009C                     ??_main:
   505                           
   506                           ; 1 bytes @ 0x3C
   507   00009C                     	ds	2
   508                           
   509                           	psect	cstackCOMRAM
   510   000001                     __pcstackCOMRAM:
   511                           	callstack 0
   512   000001                     ??_getCharFromTxBuf:
   513   000001                     ??i2_I2C_2_Master_Idle:
   514   000001                     putCharToRxBuf@byte:
   515                           	callstack 0
   516   000001                     
   517                           ; 1 bytes @ 0x0
   518   000001                     	ds	1
   519   000002                     i2I2C_2_Master_Write@data_byte:
   520                           	callstack 0
   521                           
   522                           ; 1 bytes @ 0x1
   523   000002                     	ds	1
   524   000003                     i2color_writetoaddr@value:
   525                           	callstack 0
   526                           
   527                           ; 1 bytes @ 0x2
   528   000003                     	ds	1
   529   000004                     i2color_writetoaddr@address:
   530                           	callstack 0
   531                           
   532                           ; 1 bytes @ 0x3
   533   000004                     	ds	1
   534   000005                     ??i2_init_colorclick_interrupts:
   535                           
   536                           ; 1 bytes @ 0x4
   537   000005                     	ds	1
   538   000006                     ??_HighISR:
   539   000006                     
   540                           ; 1 bytes @ 0x5
   541   000006                     	ds	2
   542   000008                     HighISR@a:
   543                           	callstack 0
   544                           
   545                           ; 1 bytes @ 0x7
   546   000008                     	ds	1
   547   000009                     ??_LowISR:
   548                           
   549                           ; 1 bytes @ 0x8
   550   000009                     	ds	3
   551   00000C                     ??_I2C_2_Master_Idle:
   552   00000C                     ??_getCharFromRxBuf:
   553   00000C                     ?_isdigit:
   554                           	callstack 0
   555   00000C                     ?_isspace:
   556                           	callstack 0
   557   00000C                     ?___wmul:
   558                           	callstack 0
   559   00000C                     ?___xxtofl:
   560                           	callstack 0
   561   00000C                     ?___aodiv:
   562                           	callstack 0
   563   00000C                     ?___aomod:
   564                           	callstack 0
   565   00000C                     putCharToTxBuf@byte:
   566                           	callstack 0
   567   00000C                     ___wmul@multiplier:
   568                           	callstack 0
   569   00000C                     isdigit@c:
   570                           	callstack 0
   571   00000C                     isspace@c:
   572                           	callstack 0
   573   00000C                     fputc@c:
   574                           	callstack 0
   575   00000C                     ___xxtofl@val:
   576                           	callstack 0
   577   00000C                     ___aodiv@dividend:
   578                           	callstack 0
   579   00000C                     ___aomod@dividend:
   580                           	callstack 0
   581                           
   582                           ; 8 bytes @ 0xB
   583   00000C                     	ds	1
   584   00000D                     ??_I2C_2_Master_Read:
   585   00000D                     I2C_2_Master_Write@data_byte:
   586                           	callstack 0
   587   00000D                     TxBufferedString@string:
   588                           	callstack 0
   589                           
   590                           ; 2 bytes @ 0xC
   591   00000D                     	ds	1
   592   00000E                     ??_isdigit:
   593   00000E                     ??_isspace:
   594   00000E                     color_writetoaddr@value:
   595                           	callstack 0
   596   00000E                     I2C_2_Master_Read@ack:
   597                           	callstack 0
   598   00000E                     ___wmul@multiplicand:
   599                           	callstack 0
   600   00000E                     fputc@fp:
   601                           	callstack 0
   602                           
   603                           ; 2 bytes @ 0xD
   604   00000E                     	ds	1
   605   00000F                     color_writetoaddr@address:
   606                           	callstack 0
   607   00000F                     I2C_2_Master_Read@tmp:
   608                           	callstack 0
   609                           
   610                           ; 1 bytes @ 0xE
   611   00000F                     	ds	1
   612   000010                     ??_fputc:
   613   000010                     ??_color_click_init:
   614   000010                     ??_init_colorclick_interrupts:
   615   000010                     ??___xxtofl:
   616   000010                     ?_color_read_Red:
   617                           	callstack 0
   618   000010                     ?_color_read_Green:
   619                           	callstack 0
   620   000010                     ?_color_read_Blue:
   621                           	callstack 0
   622   000010                     ?_color_read_Clear:
   623                           	callstack 0
   624   000010                     _isspace$2445:
   625                           	callstack 0
   626   000010                     ___wmul@product:
   627                           	callstack 0
   628                           
   629                           ; 2 bytes @ 0xF
   630   000010                     	ds	1
   631   000011                     
   632                           ; 1 bytes @ 0x10
   633   000011                     	ds	1
   634   000012                     ??_color_read_Red:
   635   000012                     ??_color_read_Green:
   636   000012                     ??_color_read_Blue:
   637   000012                     ??_color_read_Clear:
   638   000012                     ?_atoi:
   639                           	callstack 0
   640   000012                     atoi@s:
   641                           	callstack 0
   642                           
   643                           ; 2 bytes @ 0x11
   644   000012                     	ds	2
   645   000014                     ??_atoi:
   646   000014                     ___xxtofl@sign:
   647                           	callstack 0
   648   000014                     ___aodiv@divisor:
   649                           	callstack 0
   650   000014                     ___aomod@divisor:
   651                           	callstack 0
   652                           
   653                           ; 8 bytes @ 0x13
   654   000014                     	ds	1
   655   000015                     ___xxtofl@exp:
   656                           	callstack 0
   657   000015                     color_read_Red@tmp:
   658                           	callstack 0
   659   000015                     color_read_Green@tmp:
   660                           	callstack 0
   661   000015                     color_read_Blue@tmp:
   662                           	callstack 0
   663   000015                     color_read_Clear@tmp:
   664                           	callstack 0
   665   000015                     fputs@s:
   666                           	callstack 0
   667                           
   668                           ; 2 bytes @ 0x14
   669   000015                     	ds	1
   670   000016                     ___xxtofl@arg:
   671                           	callstack 0
   672                           
   673                           ; 4 bytes @ 0x15
   674   000016                     	ds	1
   675   000017                     Update_RGBC@tempval:
   676                           	callstack 0
   677   000017                     atoi@neg:
   678                           	callstack 0
   679   000017                     fputs@fp:
   680                           	callstack 0
   681                           
   682                           ; 2 bytes @ 0x16
   683   000017                     	ds	2
   684   000019                     fputs@c:
   685                           	callstack 0
   686   000019                     atoi@n:
   687                           	callstack 0
   688                           
   689                           ; 2 bytes @ 0x18
   690   000019                     	ds	1
   691   00001A                     ?___fldiv:
   692                           	callstack 0
   693   00001A                     fputs@i:
   694                           	callstack 0
   695   00001A                     ___fldiv@b:
   696                           	callstack 0
   697                           
   698                           ; 4 bytes @ 0x19
   699   00001A                     	ds	2
   700   00001C                     ___aodiv@counter:
   701                           	callstack 0
   702   00001C                     ___aomod@counter:
   703                           	callstack 0
   704   00001C                     pad@fp:
   705                           	callstack 0
   706                           
   707                           ; 2 bytes @ 0x1B
   708   00001C                     	ds	1
   709   00001D                     ___aodiv@sign:
   710                           	callstack 0
   711   00001D                     ___aomod@sign:
   712                           	callstack 0
   713                           
   714                           ; 1 bytes @ 0x1C
   715   00001D                     	ds	1
   716   00001E                     ?_abs:
   717                           	callstack 0
   718   00001E                     pad@buf:
   719                           	callstack 0
   720   00001E                     abs@a:
   721                           	callstack 0
   722   00001E                     ___fldiv@a:
   723                           	callstack 0
   724   00001E                     ___aodiv@quotient:
   725                           	callstack 0
   726                           
   727                           ; 8 bytes @ 0x1D
   728   00001E                     	ds	2
   729   000020                     ??_abs:
   730   000020                     pad@p:
   731                           	callstack 0
   732                           
   733                           ; 2 bytes @ 0x1F
   734   000020                     	ds	2
   735   000022                     ??___fldiv:
   736   000022                     ??_pad:
   737                           
   738                           ; 1 bytes @ 0x21
   739   000022                     	ds	1
   740   000023                     pad@i:
   741                           	callstack 0
   742                           
   743                           ; 2 bytes @ 0x22
   744   000023                     	ds	2
   745   000025                     pad@w:
   746                           	callstack 0
   747                           
   748                           ; 2 bytes @ 0x24
   749   000025                     	ds	1
   750   000026                     ___fldiv@rem:
   751                           	callstack 0
   752                           
   753                           ; 4 bytes @ 0x25
   754   000026                     	ds	1
   755   000027                     dtoa@fp:
   756                           	callstack 0
   757                           
   758                           ; 2 bytes @ 0x26
   759   000027                     	ds	2
   760   000029                     dtoa@d:
   761                           	callstack 0
   762                           
   763                           ; 8 bytes @ 0x28
   764   000029                     	ds	1
   765   00002A                     ___fldiv@sign:
   766                           	callstack 0
   767                           
   768                           ; 1 bytes @ 0x29
   769   00002A                     	ds	1
   770   00002B                     ___fldiv@new_exp:
   771                           	callstack 0
   772                           
   773                           ; 2 bytes @ 0x2A
   774   00002B                     	ds	2
   775   00002D                     ___fldiv@grs:
   776                           	callstack 0
   777                           
   778                           ; 4 bytes @ 0x2C
   779   00002D                     	ds	4
   780   000031                     ??_dtoa:
   781   000031                     ___fldiv@bexp:
   782                           	callstack 0
   783                           
   784                           ; 1 bytes @ 0x30
   785   000031                     	ds	1
   786   000032                     ___fldiv@aexp:
   787                           	callstack 0
   788                           
   789                           ; 1 bytes @ 0x31
   790   000032                     	ds	1
   791   000033                     ?___flmul:
   792                           	callstack 0
   793   000033                     ___flmul@b:
   794                           	callstack 0
   795                           
   796                           ; 4 bytes @ 0x32
   797   000033                     	ds	4
   798   000037                     ___flmul@a:
   799                           	callstack 0
   800                           
   801                           ; 4 bytes @ 0x36
   802   000037                     	ds	2
   803   000039                     vfpfcnvrt@fp:
   804                           	callstack 0
   805                           
   806                           ; 2 bytes @ 0x38
   807   000039                     	ds	2
   808   00003B                     ??___flmul:
   809   00003B                     vfpfcnvrt@fmt:
   810                           	callstack 0
   811                           
   812                           ; 2 bytes @ 0x3A
   813   00003B                     	ds	2
   814   00003D                     vfpfcnvrt@ap:
   815                           	callstack 0
   816                           
   817                           ; 2 bytes @ 0x3C
   818   00003D                     	ds	2
   819   00003F                     ??_vfpfcnvrt:
   820   00003F                     ?___fltol:
   821                           	callstack 0
   822   00003F                     ___fltol@f1:
   823                           	callstack 0
   824                           
   825                           ; 4 bytes @ 0x3E
   826   00003F                     	ds	3
   827   000042                     vfprintf@cfmt:
   828                           	callstack 0
   829                           
   830                           ; 2 bytes @ 0x41
   831   000042                     	ds	1
   832   000043                     ??___fltol:
   833                           
   834                           ; 1 bytes @ 0x42
   835   000043                     	ds	1
   836   000044                     
   837                           ; 1 bytes @ 0x43
   838   000044                     	ds	3
   839   000047                     ___fltol@sign1:
   840                           	callstack 0
   841                           
   842                           ; 1 bytes @ 0x46
   843   000047                     	ds	1
   844   000048                     ___fltol@exp1:
   845                           	callstack 0
   846                           
   847                           ; 1 bytes @ 0x47
   848   000048                     	ds	1
   849                           
   850 ;;
   851 ;;Main: autosize = 0, tempsize = 2, incstack = 0, save=0
   852 ;;
   853 ;; *************** function _main *****************
   854 ;; Defined at:
   855 ;;		line 20 in file "main_calibration.c"
   856 ;; Parameters:    Size  Location     Type
   857 ;;		None
   858 ;; Auto vars:     Size  Location     Type
   859 ;;  string2        40    0[BANK1 ] unsigned char [40]
   860 ;;  cont            1   41[BANK1 ] unsigned char 
   861 ;;  color_detect    1   40[BANK1 ] unsigned char 
   862 ;;  initial_colo    8   42[BANK1 ] struct RGB_val
   863 ;;  a               1    0        unsigned char 
   864 ;; Return value:  Size  Location     Type
   865 ;;                  1    wreg      void 
   866 ;; Registers used:
   867 ;;		wreg, fsr0l, fsr0h, fsr1l, fsr1h, fsr2l, fsr2h, status,2, status,0, tblptrl, tblptrh, tblptru, prodl, prodh, cstack
   868 ;; Tracked objects:
   869 ;;		On entry : 0/0
   870 ;;		On exit  : 0/0
   871 ;;		Unchanged: 0/0
   872 ;; Data sizes:     COMRAM   BANK0   BANK1   BANK2   BANK3   BANK4   BANK5   BANK6   BANK7   BANK8   BANK9  BANK10  BANK1
      +1  BANK12  BANK13
   873 ;;      Params:         0       0       0       0       0       0       0       0       0       0       0       0       
      +0       0       0
   874 ;;      Locals:         0       0      50       0       0       0       0       0       0       0       0       0       
      +0       0       0
   875 ;;      Temps:          0       2       0       0       0       0       0       0       0       0       0       0       
      +0       0       0
   876 ;;      Totals:         0       2      50       0       0       0       0       0       0       0       0       0       
      +0       0       0
   877 ;;Total ram usage:       52 bytes
   878 ;; Hardware stack levels required when called: 15
   879 ;; This function calls:
   880 ;;		_Interrupts_init
   881 ;;		_LED_init
   882 ;;		_Timer0_init
   883 ;;		_TxBufferedString
   884 ;;		_Update_RGBC
   885 ;;		_WhiteLight
   886 ;;		_color_click_init
   887 ;;		_detect_color
   888 ;;		_getCharFromRxBuf
   889 ;;		_initUSART4
   890 ;;		_isDataInRxBuf
   891 ;;		_sendTxBuf
   892 ;;		_sprintf
   893 ;; This function is called by:
   894 ;;		Startup code after reset
   895 ;; This function uses a non-reentrant model
   896 ;;
   897                           
   898                           	psect	text0
   899   0027AC                     __ptext0:
   900                           	callstack 0
   901   0027AC                     _main:
   902                           	callstack 16
   903   0027AC                     
   904                           ;main_calibration.c: 23:     RGB_val initial_color;;main_calibration.c: 24:     initial_
      +                          color.R = 0;
   905   0027AC  0E00               	movlw	0
   906   0027AE  0101               	movlb	1	; () banked
   907   0027B0  6F67               	movwf	(main@initial_color+1)& (0+255),b
   908   0027B2  0E00               	movlw	0
   909   0027B4  6F66               	movwf	main@initial_color& (0+255),b
   910                           
   911                           ;main_calibration.c: 25:     initial_color.G = 0;
   912   0027B6  0E00               	movlw	0
   913   0027B8  6F69               	movwf	(main@initial_color+3)& (0+255),b
   914   0027BA  0E00               	movlw	0
   915   0027BC  6F68               	movwf	(main@initial_color+2)& (0+255),b
   916                           
   917                           ;main_calibration.c: 26:     initial_color.B = 0;
   918   0027BE  0E00               	movlw	0
   919   0027C0  6F6B               	movwf	(main@initial_color+5)& (0+255),b
   920   0027C2  0E00               	movlw	0
   921   0027C4  6F6A               	movwf	(main@initial_color+4)& (0+255),b
   922                           
   923                           ;main_calibration.c: 27:     initial_color.C = 0;
   924   0027C6  0E00               	movlw	0
   925   0027C8  6F6D               	movwf	(main@initial_color+7)& (0+255),b
   926   0027CA  0E00               	movlw	0
   927   0027CC  6F6C               	movwf	(main@initial_color+6)& (0+255),b
   928   0027CE                     
   929                           ; BSR set to: 1
   930                           ;main_calibration.c: 29:     LED_init();
   931   0027CE  ECEF  F018         	call	_LED_init	;wreg free
   932   0027D2                     
   933                           ;main_calibration.c: 30:     color_click_init();
   934   0027D2  EC64  F017         	call	_color_click_init	;wreg free
   935   0027D6                     
   936                           ;main_calibration.c: 31:     Interrupts_init();
   937   0027D6  EC52  F018         	call	_Interrupts_init	;wreg free
   938                           
   939                           ;main_calibration.c: 32:     initUSART4();
   940   0027DA  EC95  F018         	call	_initUSART4	;wreg free
   941                           
   942                           ;main_calibration.c: 33:     Timer0_init();
   943   0027DE  EC65  F018         	call	_Timer0_init	;wreg free
   944   0027E2                     l447:
   945                           
   946                           ;main_calibration.c: 42:         WhiteLight();
   947   0027E2  EC1A  F019         	call	_WhiteLight	;wreg free
   948   0027E6                     
   949                           ;main_calibration.c: 43:         Update_RGBC(&initial_color);
   950   0027E6  0E66               	movlw	low main@initial_color
   951   0027E8  6E17               	movwf	Update_RGBC@tempval^0,c
   952   0027EA  0E01               	movlw	high main@initial_color
   953   0027EC  6E18               	movwf	(Update_RGBC@tempval+1)^0,c
   954   0027EE  EC4B  F015         	call	_Update_RGBC	;wreg free
   955   0027F2                     
   956                           ;main_calibration.c: 100:         unsigned char color_detected;;main_calibration.c: 101:
      +                                   color_detected = detect_color(initial_color);
   957   0027F2  EE21  F066         	lfsr	2,main@initial_color
   958   0027F6  EE00  F06D         	lfsr	0,detect_color@tempval
   959   0027FA  0E07               	movlw	7
   960   0027FC                     u5691:
   961   0027FC  CFDB FFEB          	movff	plusw2,plusw0
   962   002800  06E8               	decf	wreg,f,c
   963   002802  E2FC               	bc	u5691
   964   002804  EC15  F007         	call	_detect_color	;wreg free
   965   002808  0101               	movlb	1	; () banked
   966   00280A  6F64               	movwf	main@color_detected& (0+255),b
   967   00280C                     
   968                           ; BSR set to: 1
   969                           ;main_calibration.c: 103:         char cont = 0x00;
   970   00280C  0E00               	movlw	0
   971   00280E  6F65               	movwf	main@cont& (0+255),b
   972                           
   973                           ;main_calibration.c: 105:         while(isDataInRxBuf()){
   974   002810  EF0E  F014         	goto	l4884
   975   002814                     l4882:
   976                           
   977                           ;main_calibration.c: 107:             cont = getCharFromRxBuf();
   978   002814  ECAC  F017         	call	_getCharFromRxBuf	;wreg free
   979   002818  0101               	movlb	1	; () banked
   980   00281A  6F65               	movwf	main@cont& (0+255),b
   981   00281C                     l4884:
   982                           
   983                           ; BSR set to: 1
   984                           ;main_calibration.c: 105:         while(isDataInRxBuf()){
   985   00281C  ECD7  F018         	call	_isDataInRxBuf	;wreg free
   986   002820  0900               	iorlw	0
   987   002822  A4D8               	btfss	status,2,c
   988   002824  EF16  F014         	goto	u5701
   989   002828  EF18  F014         	goto	u5700
   990   00282C                     u5701:
   991   00282C  EF0A  F014         	goto	l4882
   992   002830                     u5700:
   993   002830                     
   994                           ;main_calibration.c: 110:         if(cont == 0x01){
   995   002830  0101               	movlb	1	; () banked
   996   002832  0565               	decf	main@cont& (0+255),w,b
   997   002834  A4D8               	btfss	status,2,c
   998   002836  EF1F  F014         	goto	u5711
   999   00283A  EF21  F014         	goto	u5710
  1000   00283E                     u5711:
  1001   00283E  EF43  F014         	goto	l4896
  1002   002842                     u5710:
  1003   002842                     
  1004                           ; BSR set to: 1
  1005                           ;main_calibration.c: 112:             char string2[40];;main_calibration.c: 113:        
      +                               sprintf(string2,"\nColor Detected = %02d %05d %05d %05d\n",color_detected,initial_c
      +                          olor.R,initial_color.G,initial_color.B);
  1006   002842  0E3C               	movlw	low main@string2
  1007   002844  0100               	movlb	0	; () banked
  1008   002846  6F83               	movwf	sprintf@s& (0+255),b
  1009   002848  0E01               	movlw	high main@string2
  1010   00284A  6F84               	movwf	(sprintf@s+1)& (0+255),b
  1011   00284C  0E01               	movlw	low STR_1
  1012   00284E  6F85               	movwf	sprintf@fmt& (0+255),b
  1013   002850  0E0E               	movlw	high STR_1
  1014   002852  6F86               	movwf	(sprintf@fmt+1)& (0+255),b
  1015   002854  C164  F087         	movff	main@color_detected,?_sprintf+4
  1016   002858  6B88               	clrf	(?_sprintf+5)& (0+255),b
  1017   00285A  C166  F089         	movff	main@initial_color,?_sprintf+6
  1018   00285E  C167  F08A         	movff	main@initial_color+1,?_sprintf+7
  1019   002862  C168  F08B         	movff	main@initial_color+2,?_sprintf+8
  1020   002866  C169  F08C         	movff	main@initial_color+3,?_sprintf+9
  1021   00286A  C16A  F08D         	movff	main@initial_color+4,?_sprintf+10
  1022   00286E  C16B  F08E         	movff	main@initial_color+5,?_sprintf+11
  1023   002872  ECA4  F015         	call	_sprintf	;wreg free
  1024   002876                     
  1025                           ;main_calibration.c: 114:             TxBufferedString(string2);
  1026   002876  0E3C               	movlw	low main@string2
  1027   002878  6E0D               	movwf	TxBufferedString@string^0,c
  1028   00287A  0E01               	movlw	high main@string2
  1029   00287C  6E0E               	movwf	(TxBufferedString@string+1)^0,c
  1030   00287E  EC7E  F017         	call	_TxBufferedString	;wreg free
  1031   002882                     
  1032                           ;main_calibration.c: 116:             sendTxBuf();
  1033   002882  ECA4  F018         	call	_sendTxBuf	;wreg free
  1034   002886                     l4896:
  1035                           
  1036                           ;main_calibration.c: 119:         _delay((unsigned long)((100)*(64000000/4000.0)));
  1037   002886  0E09               	movlw	9
  1038   002888  0100               	movlb	0	; () banked
  1039   00288A  6F9D               	movwf	(??_main+1)& (0+255),b
  1040   00288C  0E1E               	movlw	30
  1041   00288E  6F9C               	movwf	??_main& (0+255),b
  1042   002890  0EE4               	movlw	228
  1043   002892                     u5727:
  1044   002892  2EE8               	decfsz	wreg,f,c
  1045   002894  D7FE               	bra	u5727
  1046   002896  2F9C               	decfsz	??_main& (0+255),f,b
  1047   002898  D7FC               	bra	u5727
  1048   00289A  2F9D               	decfsz	(??_main+1)& (0+255),f,b
  1049   00289C  D7FA               	bra	u5727
  1050   00289E  F000               	nop	
  1051   0028A0  EFF1  F013         	goto	l447
  1052   0028A4  EF2C  F000         	goto	start
  1053   0028A8                     __end_of_main:
  1054                           	callstack 0
  1055                           
  1056 ;; *************** function _sprintf *****************
  1057 ;; Defined at:
  1058 ;;		line 9 in file "D:\MPLAB_COMPILER\pic\sources\c99\common\nf_sprintf.c"
  1059 ;; Parameters:    Size  Location     Type
  1060 ;;  s               2   35[BANK0 ] PTR unsigned char 
  1061 ;;		 -> main@string2(40), 
  1062 ;;  fmt             2   37[BANK0 ] PTR const unsigned char 
  1063 ;;		 -> STR_1(39), 
  1064 ;; Auto vars:     Size  Location     Type
  1065 ;;  f              11   49[BANK0 ] struct _IO_FILE
  1066 ;;  ap              2   47[BANK0 ] PTR void [1]
  1067 ;;		 -> ?_sprintf(2), 
  1068 ;;  ret             2    0        int 
  1069 ;; Return value:  Size  Location     Type
  1070 ;;                  2   35[BANK0 ] int 
  1071 ;; Registers used:
  1072 ;;		wreg, fsr1l, fsr1h, fsr2l, fsr2h, status,2, status,0, tblptrl, tblptrh, tblptru, prodl, prodh, cstack
  1073 ;; Tracked objects:
  1074 ;;		On entry : 0/0
  1075 ;;		On exit  : 0/0
  1076 ;;		Unchanged: 0/0
  1077 ;; Data sizes:     COMRAM   BANK0   BANK1   BANK2   BANK3   BANK4   BANK5   BANK6   BANK7   BANK8   BANK9  BANK10  BANK1
      +1  BANK12  BANK13
  1078 ;;      Params:         0      12       0       0       0       0       0       0       0       0       0       0       
      +0       0       0
  1079 ;;      Locals:         0      13       0       0       0       0       0       0       0       0       0       0       
      +0       0       0
  1080 ;;      Temps:          0       0       0       0       0       0       0       0       0       0       0       0       
      +0       0       0
  1081 ;;      Totals:         0      25       0       0       0       0       0       0       0       0       0       0       
      +0       0       0
  1082 ;;Total ram usage:       25 bytes
  1083 ;; Hardware stack levels used: 1
  1084 ;; Hardware stack levels required when called: 14
  1085 ;; This function calls:
  1086 ;;		_vfprintf
  1087 ;; This function is called by:
  1088 ;;		_main
  1089 ;; This function uses a non-reentrant model
  1090 ;;
  1091                           
  1092                           	psect	text1
  1093   002B48                     __ptext1:
  1094                           	callstack 0
  1095   002B48                     _sprintf:
  1096                           	callstack 16
  1097   002B48  0E87               	movlw	low (?_sprintf+4)
  1098   002B4A  0100               	movlb	0	; () banked
  1099   002B4C  6F8F               	movwf	sprintf@ap& (0+255),b
  1100   002B4E  0E00               	movlw	high (?_sprintf+4)
  1101   002B50  6F90               	movwf	(sprintf@ap+1)& (0+255),b
  1102   002B52  C083  F091         	movff	sprintf@s,sprintf@f
  1103   002B56  C084  F092         	movff	sprintf@s+1,sprintf@f+1
  1104   002B5A                     
  1105                           ; BSR set to: 0
  1106   002B5A  0E00               	movlw	0
  1107   002B5C  6F95               	movwf	(sprintf@f+4)& (0+255),b
  1108   002B5E  0E00               	movlw	0
  1109   002B60  6F94               	movwf	(sprintf@f+3)& (0+255),b
  1110   002B62                     
  1111                           ; BSR set to: 0
  1112   002B62  0E00               	movlw	0
  1113   002B64  6F9B               	movwf	(sprintf@f+10)& (0+255),b
  1114   002B66  0E00               	movlw	0
  1115   002B68  6F9A               	movwf	(sprintf@f+9)& (0+255),b
  1116   002B6A                     
  1117                           ; BSR set to: 0
  1118   002B6A  0E91               	movlw	low sprintf@f
  1119   002B6C  6F7D               	movwf	vfprintf@fp& (0+255),b
  1120   002B6E  0E00               	movlw	high sprintf@f
  1121   002B70  6F7E               	movwf	(vfprintf@fp+1)& (0+255),b
  1122   002B72  C085  F07F         	movff	sprintf@fmt,vfprintf@fmt
  1123   002B76  C086  F080         	movff	sprintf@fmt+1,vfprintf@fmt+1
  1124   002B7A  0E8F               	movlw	low sprintf@ap
  1125   002B7C  6F81               	movwf	vfprintf@ap& (0+255),b
  1126   002B7E  0E00               	movlw	high sprintf@ap
  1127   002B80  6F82               	movwf	(vfprintf@ap+1)& (0+255),b
  1128   002B82  EC7A  F015         	call	_vfprintf	;wreg free
  1129   002B86  0100               	movlb	0	; () banked
  1130   002B88  5194               	movf	(sprintf@f+3)& (0+255),w,b
  1131   002B8A  2583               	addwf	sprintf@s& (0+255),w,b
  1132   002B8C  6ED9               	movwf	fsr2l,c
  1133   002B8E  5195               	movf	(sprintf@f+4)& (0+255),w,b
  1134   002B90  2184               	addwfc	(sprintf@s+1)& (0+255),w,b
  1135   002B92  6EDA               	movwf	fsr2h,c
  1136   002B94  0E00               	movlw	0
  1137   002B96  6EDF               	movwf	indf2,c
  1138   002B98                     
  1139                           ; BSR set to: 0
  1140   002B98  0012               	return		;funcret
  1141   002B9A                     __end_of_sprintf:
  1142                           	callstack 0
  1143                           
  1144 ;; *************** function _vfprintf *****************
  1145 ;; Defined at:
  1146 ;;		line 1520 in file "D:\MPLAB_COMPILER\pic\sources\c99\common\doprnt.c"
  1147 ;; Parameters:    Size  Location     Type
  1148 ;;  fp              2   29[BANK0 ] PTR struct _IO_FILE
  1149 ;;		 -> sprintf@f(11), 
  1150 ;;  fmt             2   31[BANK0 ] PTR const unsigned char 
  1151 ;;		 -> STR_1(39), 
  1152 ;;  ap              2   33[BANK0 ] PTR PTR void 
  1153 ;;		 -> sprintf@ap(2), 
  1154 ;; Auto vars:     Size  Location     Type
  1155 ;;  cfmt            2   65[COMRAM] PTR unsigned char 
  1156 ;;		 -> STR_1(39), 
  1157 ;; Return value:  Size  Location     Type
  1158 ;;                  2   29[BANK0 ] int 
  1159 ;; Registers used:
  1160 ;;		wreg, fsr1l, fsr1h, fsr2l, fsr2h, status,2, status,0, tblptrl, tblptrh, tblptru, prodl, prodh, cstack
  1161 ;; Tracked objects:
  1162 ;;		On entry : 0/0
  1163 ;;		On exit  : 0/0
  1164 ;;		Unchanged: 0/0
  1165 ;; Data sizes:     COMRAM   BANK0   BANK1   BANK2   BANK3   BANK4   BANK5   BANK6   BANK7   BANK8   BANK9  BANK10  BANK1
      +1  BANK12  BANK13
  1166 ;;      Params:         0       6       0       0       0       0       0       0       0       0       0       0       
      +0       0       0
  1167 ;;      Locals:         2       0       0       0       0       0       0       0       0       0       0       0       
      +0       0       0
  1168 ;;      Temps:          0       0       0       0       0       0       0       0       0       0       0       0       
      +0       0       0
  1169 ;;      Totals:         2       6       0       0       0       0       0       0       0       0       0       0       
      +0       0       0
  1170 ;;Total ram usage:        8 bytes
  1171 ;; Hardware stack levels used: 1
  1172 ;; Hardware stack levels required when called: 13
  1173 ;; This function calls:
  1174 ;;		_vfpfcnvrt
  1175 ;; This function is called by:
  1176 ;;		_sprintf
  1177 ;; This function uses a non-reentrant model
  1178 ;;
  1179                           
  1180                           	psect	text2
  1181   002AF4                     __ptext2:
  1182                           	callstack 0
  1183   002AF4                     _vfprintf:
  1184                           	callstack 16
  1185   002AF4                     
  1186                           ;D:\MPLAB_COMPILER\pic\sources\c99\common\doprnt.c: 1520: int vfprintf(FILE *fp, const c
      +                          har *fmt, va_list ap);D:\MPLAB_COMPILER\pic\sources\c99\common\doprnt.c: 1521: {;D:\MPLA
      +                          B_COMPILER\pic\sources\c99\common\doprnt.c: 1523:     char *cfmt;;D:\MPLAB_COMPILER\pic\
      +                          sources\c99\common\doprnt.c: 1525:     cfmt = (char *)fmt;
  1187   002AF4  C07F  F042         	movff	vfprintf@fmt,vfprintf@cfmt
  1188   002AF8  C080  F043         	movff	vfprintf@fmt+1,vfprintf@cfmt+1
  1189                           
  1190                           ;D:\MPLAB_COMPILER\pic\sources\c99\common\doprnt.c: 1529:     while (*cfmt) {
  1191   002AFC  EF8E  F015         	goto	l4564
  1192   002B00                     l4562:
  1193                           
  1194                           ;D:\MPLAB_COMPILER\pic\sources\c99\common\doprnt.c: 1533:    vfpfcnvrt(fp, &cfmt, ap);
  1195   002B00  C07D  F039         	movff	vfprintf@fp,vfpfcnvrt@fp
  1196   002B04  C07E  F03A         	movff	vfprintf@fp+1,vfpfcnvrt@fp+1
  1197   002B08  0E42               	movlw	low vfprintf@cfmt
  1198   002B0A  6E3B               	movwf	vfpfcnvrt@fmt^0,c
  1199   002B0C  0E00               	movlw	high vfprintf@cfmt
  1200   002B0E  6E3C               	movwf	(vfpfcnvrt@fmt+1)^0,c
  1201   002B10  C081  F03D         	movff	vfprintf@ap,vfpfcnvrt@ap
  1202   002B14  C082  F03E         	movff	vfprintf@ap+1,vfpfcnvrt@ap+1
  1203   002B18  EC9B  F00D         	call	_vfpfcnvrt	;wreg free
  1204   002B1C                     l4564:
  1205                           
  1206                           ;D:\MPLAB_COMPILER\pic\sources\c99\common\doprnt.c: 1529:     while (*cfmt) {
  1207   002B1C  C042  FFF6         	movff	vfprintf@cfmt,tblptrl
  1208   002B20  C043  FFF7         	movff	vfprintf@cfmt+1,tblptrh
  1209   002B24                     	if	0	;tblptru may be non-zero
  1210   002B24                     	endif
  1211   002B24                     	if	1	;Program memory is > 0xFFFF, there are 3 active tblptr bytes
  1212   002B24  0E00               	movlw	low (__mediumconst shr (0+16))
  1213   002B26  6EF8               	movwf	tblptru,c
  1214   002B28                     	endif
  1215   002B28  0008               	tblrd		*
  1216   002B2A  50F5               	movf	tablat,w,c
  1217   002B2C  0900               	iorlw	0
  1218   002B2E  A4D8               	btfss	status,2,c
  1219   002B30  EF9C  F015         	goto	u5071
  1220   002B34  EF9E  F015         	goto	u5070
  1221   002B38                     u5071:
  1222   002B38  EF80  F015         	goto	l4562
  1223   002B3C                     u5070:
  1224   002B3C                     
  1225                           ;D:\MPLAB_COMPILER\pic\sources\c99\common\doprnt.c: 1538:  return 0;
  1226   002B3C  0E00               	movlw	0
  1227   002B3E  0100               	movlb	0	; () banked
  1228   002B40  6F7E               	movwf	(?_vfprintf+1)& (0+255),b
  1229   002B42  0E00               	movlw	0
  1230   002B44  6F7D               	movwf	?_vfprintf& (0+255),b
  1231   002B46                     
  1232                           ; BSR set to: 0
  1233   002B46  0012               	return		;funcret
  1234   002B48                     __end_of_vfprintf:
  1235                           	callstack 0
  1236                           
  1237 ;; *************** function _vfpfcnvrt *****************
  1238 ;; Defined at:
  1239 ;;		line 1007 in file "D:\MPLAB_COMPILER\pic\sources\c99\common\doprnt.c"
  1240 ;; Parameters:    Size  Location     Type
  1241 ;;  fp              2   56[COMRAM] PTR struct _IO_FILE
  1242 ;;		 -> sprintf@f(11), 
  1243 ;;  fmt             2   58[COMRAM] PTR PTR unsigned char 
  1244 ;;		 -> vfprintf@cfmt(2), 
  1245 ;;  ap              2   60[COMRAM] PTR PTR void 
  1246 ;;		 -> sprintf@ap(2), 
  1247 ;; Auto vars:     Size  Location     Type
  1248 ;;  convarg         8   17[BANK0 ] struct .
  1249 ;;  cp              2   27[BANK0 ] PTR unsigned char 
  1250 ;;		 -> STR_1(39), 
  1251 ;;  done            2   25[BANK0 ] int 
  1252 ;;  i               2    0        int 
  1253 ;;  c               1    0        unsigned char 
  1254 ;; Return value:  Size  Location     Type
  1255 ;;                  1    wreg      void 
  1256 ;; Registers used:
  1257 ;;		wreg, fsr1l, fsr1h, fsr2l, fsr2h, status,2, status,0, tblptrl, tblptrh, tblptru, prodl, prodh, cstack
  1258 ;; Tracked objects:
  1259 ;;		On entry : 0/0
  1260 ;;		On exit  : 0/0
  1261 ;;		Unchanged: 0/0
  1262 ;; Data sizes:     COMRAM   BANK0   BANK1   BANK2   BANK3   BANK4   BANK5   BANK6   BANK7   BANK8   BANK9  BANK10  BANK1
      +1  BANK12  BANK13
  1263 ;;      Params:         6       0       0       0       0       0       0       0       0       0       0       0       
      +0       0       0
  1264 ;;      Locals:         0      12       0       0       0       0       0       0       0       0       0       0       
      +0       0       0
  1265 ;;      Temps:          3       0       0       0       0       0       0       0       0       0       0       0       
      +0       0       0
  1266 ;;      Totals:         9      12       0       0       0       0       0       0       0       0       0       0       
      +0       0       0
  1267 ;;Total ram usage:       21 bytes
  1268 ;; Hardware stack levels used: 1
  1269 ;; Hardware stack levels required when called: 12
  1270 ;; This function calls:
  1271 ;;		_atoi
  1272 ;;		_dtoa
  1273 ;;		_fputc
  1274 ;;		_isdigit
  1275 ;; This function is called by:
  1276 ;;		_vfprintf
  1277 ;; This function uses a non-reentrant model
  1278 ;;
  1279                           
  1280                           	psect	text3
  1281   001B36                     __ptext3:
  1282                           	callstack 0
  1283   001B36                     _vfpfcnvrt:
  1284                           	callstack 16
  1285   001B36                     
  1286                           ;D:\MPLAB_COMPILER\pic\sources\c99\common\doprnt.c: 1007: vfpfcnvrt(FILE *fp, char *fmt[
      +                          ], va_list ap);D:\MPLAB_COMPILER\pic\sources\c99\common\doprnt.c: 1008: {;D:\MPLAB_COMPI
      +                          LER\pic\sources\c99\common\doprnt.c: 1009:     char c, *cp;;D:\MPLAB_COMPILER\pic\source
      +                          s\c99\common\doprnt.c: 1010:     int done, i;;D:\MPLAB_COMPILER\pic\sources\c99\common\d
      +                          oprnt.c: 1016:  } convarg;;D:\MPLAB_COMPILER\pic\sources\c99\common\doprnt.c: 1019:     
      +                          if ((*fmt)[0] == '%') {
  1287   001B36  C03B  FFD9         	movff	vfpfcnvrt@fmt,fsr2l
  1288   001B3A  C03C  FFDA         	movff	vfpfcnvrt@fmt+1,fsr2h
  1289   001B3E  CFDE FFF6          	movff	postinc2,tblptrl
  1290   001B42  CFDD FFF7          	movff	postdec2,tblptrh
  1291   001B46                     	if	0	;tblptru may be non-zero
  1292   001B46                     	endif
  1293   001B46                     	if	1	;Program memory is > 0xFFFF, there are 3 active tblptr bytes
  1294   001B46  0E00               	movlw	low (__mediumconst shr (0+16))
  1295   001B48  6EF8               	movwf	tblptru,c
  1296   001B4A                     	endif
  1297   001B4A  0008               	tblrd		*
  1298   001B4C  50F5               	movf	tablat,w,c
  1299   001B4E  0A25               	xorlw	37
  1300   001B50  A4D8               	btfss	status,2,c
  1301   001B52  EFAD  F00D         	goto	u4381
  1302   001B56  EFAF  F00D         	goto	u4380
  1303   001B5A                     u4381:
  1304   001B5A  EFE1  F00E         	goto	l4138
  1305   001B5E                     u4380:
  1306   001B5E                     
  1307                           ;D:\MPLAB_COMPILER\pic\sources\c99\common\doprnt.c: 1020:         ++*fmt;
  1308   001B5E  C03B  FFD9         	movff	vfpfcnvrt@fmt,fsr2l
  1309   001B62  C03C  FFDA         	movff	vfpfcnvrt@fmt+1,fsr2h
  1310   001B66  2ADE               	incf	postinc2,f,c
  1311   001B68  0E00               	movlw	0
  1312   001B6A  22DD               	addwfc	postdec2,f,c
  1313   001B6C                     
  1314                           ;D:\MPLAB_COMPILER\pic\sources\c99\common\doprnt.c: 1022:         flags = width = 0;
  1315   001B6C  0E00               	movlw	0
  1316   001B6E  0100               	movlb	0	; () banked
  1317   001B70  6FB3               	movwf	(_width+1)& (0+255),b
  1318   001B72  0E00               	movlw	0
  1319   001B74  6FB2               	movwf	_width& (0+255),b
  1320   001B76  C0B2  F04D         	movff	_width,_flags
  1321   001B7A                     
  1322                           ; BSR set to: 0
  1323                           ;D:\MPLAB_COMPILER\pic\sources\c99\common\doprnt.c: 1023:         prec = -1;
  1324   001B7A  6849               	setf	_prec^0,c
  1325   001B7C  684A               	setf	(_prec+1)^0,c
  1326   001B7E                     
  1327                           ; BSR set to: 0
  1328                           ;D:\MPLAB_COMPILER\pic\sources\c99\common\doprnt.c: 1027:         done = 0;
  1329   001B7E  0E00               	movlw	0
  1330   001B80  6F7A               	movwf	(vfpfcnvrt@done+1)& (0+255),b
  1331   001B82  0E00               	movlw	0
  1332   001B84  6F79               	movwf	vfpfcnvrt@done& (0+255),b
  1333                           
  1334                           ;D:\MPLAB_COMPILER\pic\sources\c99\common\doprnt.c: 1028:         while (!done) {
  1335   001B86  EFF1  F00D         	goto	l4104
  1336   001B8A                     l4094:
  1337                           
  1338                           ; BSR set to: 0
  1339                           ;D:\MPLAB_COMPILER\pic\sources\c99\common\doprnt.c: 1038:                     flags |= (
      +                          1 << 1);
  1340   001B8A  824D               	bsf	_flags^0,1,c
  1341   001B8C                     
  1342                           ; BSR set to: 0
  1343                           ;D:\MPLAB_COMPILER\pic\sources\c99\common\doprnt.c: 1039:                     ++*fmt;
  1344   001B8C  C03B  FFD9         	movff	vfpfcnvrt@fmt,fsr2l
  1345   001B90  C03C  FFDA         	movff	vfpfcnvrt@fmt+1,fsr2h
  1346   001B94  2ADE               	incf	postinc2,f,c
  1347   001B96  0E00               	movlw	0
  1348   001B98  22DD               	addwfc	postdec2,f,c
  1349                           
  1350                           ;D:\MPLAB_COMPILER\pic\sources\c99\common\doprnt.c: 1040:                     break;
  1351   001B9A  EFF1  F00D         	goto	l4104
  1352   001B9E                     l4098:
  1353                           
  1354                           ; BSR set to: 0
  1355                           ;D:\MPLAB_COMPILER\pic\sources\c99\common\doprnt.c: 1061:                     done = 1;
  1356   001B9E  0E00               	movlw	0
  1357   001BA0  6F7A               	movwf	(vfpfcnvrt@done+1)& (0+255),b
  1358   001BA2  0E01               	movlw	1
  1359   001BA4  6F79               	movwf	vfpfcnvrt@done& (0+255),b
  1360                           
  1361                           ;D:\MPLAB_COMPILER\pic\sources\c99\common\doprnt.c: 1062:                     break;
  1362   001BA6  EFF1  F00D         	goto	l4104
  1363   001BAA                     l4102:
  1364                           
  1365                           ; BSR set to: 0
  1366   001BAA  C03B  FFD9         	movff	vfpfcnvrt@fmt,fsr2l
  1367   001BAE  C03C  FFDA         	movff	vfpfcnvrt@fmt+1,fsr2h
  1368   001BB2  CFDE FFF6          	movff	postinc2,tblptrl
  1369   001BB6  CFDD FFF7          	movff	postdec2,tblptrh
  1370   001BBA                     	if	0	;tblptru may be non-zero
  1371   001BBA                     	endif
  1372   001BBA                     	if	1	;Program memory is > 0xFFFF, there are 3 active tblptr bytes
  1373   001BBA  0E00               	movlw	low (__mediumconst shr (0+16))
  1374   001BBC  6EF8               	movwf	tblptru,c
  1375   001BBE                     	endif
  1376   001BBE  0008               	tblrd		*
  1377   001BC0  50F5               	movf	tablat,w,c
  1378   001BC2  6E3F               	movwf	??_vfpfcnvrt^0,c
  1379   001BC4  6A40               	clrf	(??_vfpfcnvrt+1)^0,c
  1380                           
  1381                           ; Switch on 2 bytes has been partitioned into a top level switch of size 1, and 1 sub-sw
      +                          itches
  1382                           ; Switch size 1, requested type "simple"
  1383                           ; Number of cases is 1, Range of values is 0 to 0
  1384                           ; switch strategies available:
  1385                           ; Name         Instructions Cycles
  1386                           ; simple_byte            4     3 (average)
  1387                           ;	Chosen strategy is simple_byte
  1388   001BC6  5040               	movf	(??_vfpfcnvrt+1)^0,w,c
  1389   001BC8  0A00               	xorlw	0	; case 0
  1390   001BCA  B4D8               	btfsc	status,2,c
  1391   001BCC  EFEA  F00D         	goto	l4958
  1392   001BD0  EFCF  F00D         	goto	l4098
  1393   001BD4                     l4958:
  1394                           
  1395                           ; BSR set to: 0
  1396                           ; Switch size 1, requested type "simple"
  1397                           ; Number of cases is 1, Range of values is 48 to 48
  1398                           ; switch strategies available:
  1399                           ; Name         Instructions Cycles
  1400                           ; simple_byte            4     3 (average)
  1401                           ;	Chosen strategy is simple_byte
  1402   001BD4  503F               	movf	??_vfpfcnvrt^0,w,c
  1403   001BD6  0A30               	xorlw	48	; case 48
  1404   001BD8  B4D8               	btfsc	status,2,c
  1405   001BDA  EFC5  F00D         	goto	l4094
  1406   001BDE  EFCF  F00D         	goto	l4098
  1407   001BE2                     l4104:
  1408                           
  1409                           ; BSR set to: 0
  1410                           ;D:\MPLAB_COMPILER\pic\sources\c99\common\doprnt.c: 1028:         while (!done) {
  1411   001BE2  5179               	movf	vfpfcnvrt@done& (0+255),w,b
  1412   001BE4  117A               	iorwf	(vfpfcnvrt@done+1)& (0+255),w,b
  1413   001BE6  B4D8               	btfsc	status,2,c
  1414   001BE8  EFF8  F00D         	goto	u4391
  1415   001BEC  EFFA  F00D         	goto	u4390
  1416   001BF0                     u4391:
  1417   001BF0  EFD5  F00D         	goto	l4102
  1418   001BF4                     u4390:
  1419   001BF4                     
  1420                           ; BSR set to: 0
  1421                           ;D:\MPLAB_COMPILER\pic\sources\c99\common\doprnt.c: 1074:         if ((*fmt)[0] == '*') 
      +                          {
  1422   001BF4  C03B  FFD9         	movff	vfpfcnvrt@fmt,fsr2l
  1423   001BF8  C03C  FFDA         	movff	vfpfcnvrt@fmt+1,fsr2h
  1424   001BFC  CFDE FFF6          	movff	postinc2,tblptrl
  1425   001C00  CFDD FFF7          	movff	postdec2,tblptrh
  1426   001C04                     	if	0	;tblptru may be non-zero
  1427   001C04                     	endif
  1428   001C04                     	if	1	;Program memory is > 0xFFFF, there are 3 active tblptr bytes
  1429   001C04  0E00               	movlw	low (__mediumconst shr (0+16))
  1430   001C06  6EF8               	movwf	tblptru,c
  1431   001C08                     	endif
  1432   001C08  0008               	tblrd		*
  1433   001C0A  50F5               	movf	tablat,w,c
  1434   001C0C  0A2A               	xorlw	42
  1435   001C0E  A4D8               	btfss	status,2,c
  1436   001C10  EF0C  F00E         	goto	u4401
  1437   001C14  EF0E  F00E         	goto	u4400
  1438   001C18                     u4401:
  1439   001C18  EF37  F00E         	goto	l4114
  1440   001C1C                     u4400:
  1441   001C1C                     
  1442                           ; BSR set to: 0
  1443                           ;D:\MPLAB_COMPILER\pic\sources\c99\common\doprnt.c: 1075:             ++*fmt;
  1444   001C1C  C03B  FFD9         	movff	vfpfcnvrt@fmt,fsr2l
  1445   001C20  C03C  FFDA         	movff	vfpfcnvrt@fmt+1,fsr2h
  1446   001C24  2ADE               	incf	postinc2,f,c
  1447   001C26  0E00               	movlw	0
  1448   001C28  22DD               	addwfc	postdec2,f,c
  1449                           
  1450                           ;D:\MPLAB_COMPILER\pic\sources\c99\common\doprnt.c: 1076:             width = (*(int *)_
      +                          _va_arg(*(int **)ap, (int)0));
  1451   001C2A  C03D  FFD9         	movff	vfpfcnvrt@ap,fsr2l
  1452   001C2E  C03E  FFDA         	movff	vfpfcnvrt@ap+1,fsr2h
  1453   001C32  CFDF F03F          	movff	indf2,??_vfpfcnvrt
  1454   001C36  0E02               	movlw	2
  1455   001C38  26DE               	addwf	postinc2,f,c
  1456   001C3A  CFDF F040          	movff	indf2,??_vfpfcnvrt+1
  1457   001C3E  0E00               	movlw	0
  1458   001C40  22DD               	addwfc	postdec2,f,c
  1459   001C42  C03F  FFD9         	movff	??_vfpfcnvrt,fsr2l
  1460   001C46  C040  FFDA         	movff	??_vfpfcnvrt+1,fsr2h
  1461   001C4A  CFDE F0B2          	movff	postinc2,_width
  1462   001C4E  CFDD F0B3          	movff	postdec2,_width+1
  1463   001C52                     
  1464                           ; BSR set to: 0
  1465                           ;D:\MPLAB_COMPILER\pic\sources\c99\common\doprnt.c: 1077:             if (width < 0) {
  1466   001C52  BFB3               	btfsc	(_width+1)& (0+255),7,b
  1467   001C54  EF30  F00E         	goto	u4410
  1468   001C58  EF2E  F00E         	goto	u4411
  1469   001C5C                     u4411:
  1470   001C5C  EF6C  F00E         	goto	l4122
  1471   001C60                     u4410:
  1472   001C60                     
  1473                           ; BSR set to: 0
  1474                           ;D:\MPLAB_COMPILER\pic\sources\c99\common\doprnt.c: 1078:                 flags |= (1 <<
      +                           0);
  1475   001C60  804D               	bsf	_flags^0,0,c
  1476                           
  1477                           ;D:\MPLAB_COMPILER\pic\sources\c99\common\doprnt.c: 1079:                 width = -width
      +                          ;
  1478   001C62  6DB2               	negf	_width& (0+255),b
  1479   001C64  1FB3               	comf	(_width+1)& (0+255),f,b
  1480   001C66  B0D8               	btfsc	status,0,c
  1481   001C68  2BB3               	incf	(_width+1)& (0+255),f,b
  1482   001C6A  EF6C  F00E         	goto	l4122
  1483   001C6E                     l4114:
  1484                           
  1485                           ; BSR set to: 0
  1486                           ;D:\MPLAB_COMPILER\pic\sources\c99\common\doprnt.c: 1082:             width = atoi(*fmt)
      +                          ;
  1487   001C6E  C03B  FFD9         	movff	vfpfcnvrt@fmt,fsr2l
  1488   001C72  C03C  FFDA         	movff	vfpfcnvrt@fmt+1,fsr2h
  1489   001C76  CFDE F012          	movff	postinc2,atoi@s
  1490   001C7A  CFDD F013          	movff	postdec2,atoi@s+1
  1491   001C7E  ECA4  F012         	call	_atoi	;wreg free
  1492   001C82  C012  F0B2         	movff	?_atoi,_width
  1493   001C86  C013  F0B3         	movff	?_atoi+1,_width+1
  1494                           
  1495                           ;D:\MPLAB_COMPILER\pic\sources\c99\common\doprnt.c: 1083:             while ((0 && isdig
      +                          it((*fmt)[0]), ((unsigned)((*fmt)[0])-'0') < 10)) {
  1496   001C8A  EF4E  F00E         	goto	l4120
  1497   001C8E                     l4116:
  1498                           
  1499                           ;D:\MPLAB_COMPILER\pic\sources\c99\common\doprnt.c: 1084:                 ++*fmt;
  1500   001C8E  C03B  FFD9         	movff	vfpfcnvrt@fmt,fsr2l
  1501   001C92  C03C  FFDA         	movff	vfpfcnvrt@fmt+1,fsr2h
  1502   001C96  2ADE               	incf	postinc2,f,c
  1503   001C98  0E00               	movlw	0
  1504   001C9A  22DD               	addwfc	postdec2,f,c
  1505   001C9C                     l4120:
  1506   001C9C  C03B  FFD9         	movff	vfpfcnvrt@fmt,fsr2l
  1507   001CA0  C03C  FFDA         	movff	vfpfcnvrt@fmt+1,fsr2h
  1508   001CA4  CFDE FFF6          	movff	postinc2,tblptrl
  1509   001CA8  CFDD FFF7          	movff	postdec2,tblptrh
  1510   001CAC                     	if	0	;tblptru may be non-zero
  1511   001CAC                     	endif
  1512   001CAC                     	if	1	;Program memory is > 0xFFFF, there are 3 active tblptr bytes
  1513   001CAC  0E00               	movlw	low (__mediumconst shr (0+16))
  1514   001CAE  6EF8               	movwf	tblptru,c
  1515   001CB0                     	endif
  1516   001CB0  0008               	tblrd		*
  1517   001CB2  CFF5 F03F          	movff	tablat,??_vfpfcnvrt
  1518   001CB6  0ED0               	movlw	208
  1519   001CB8  243F               	addwf	??_vfpfcnvrt^0,w,c
  1520   001CBA  6E40               	movwf	(??_vfpfcnvrt+1)^0,c
  1521   001CBC  6A41               	clrf	(??_vfpfcnvrt+2)^0,c
  1522   001CBE  0EFF               	movlw	255
  1523   001CC0  2241               	addwfc	(??_vfpfcnvrt+2)^0,f,c
  1524   001CC2  5041               	movf	(??_vfpfcnvrt+2)^0,w,c
  1525   001CC4  E109               	bnz	u4420
  1526   001CC6  0E0A               	movlw	10
  1527   001CC8  5C40               	subwf	(??_vfpfcnvrt+1)^0,w,c
  1528   001CCA  A0D8               	btfss	status,0,c
  1529   001CCC  EF6A  F00E         	goto	u4421
  1530   001CD0  EF6C  F00E         	goto	u4420
  1531   001CD4                     u4421:
  1532   001CD4  EF47  F00E         	goto	l4116
  1533   001CD8                     u4420:
  1534   001CD8                     l4122:
  1535                           
  1536                           ;D:\MPLAB_COMPILER\pic\sources\c99\common\doprnt.c: 1117:   cp = *fmt;
  1537   001CD8  C03B  FFD9         	movff	vfpfcnvrt@fmt,fsr2l
  1538   001CDC  C03C  FFDA         	movff	vfpfcnvrt@fmt+1,fsr2h
  1539   001CE0  CFDE F07B          	movff	postinc2,vfpfcnvrt@cp
  1540   001CE4  CFDD F07C          	movff	postdec2,vfpfcnvrt@cp+1
  1541   001CE8                     
  1542                           ;D:\MPLAB_COMPILER\pic\sources\c99\common\doprnt.c: 1187:   if (*cp == 'd' || *cp == 'i'
      +                          ) {
  1543   001CE8  C07B  FFF6         	movff	vfpfcnvrt@cp,tblptrl
  1544   001CEC  C07C  FFF7         	movff	vfpfcnvrt@cp+1,tblptrh
  1545   001CF0                     	if	0	;tblptru may be non-zero
  1546   001CF0                     	endif
  1547   001CF0                     	if	1	;Program memory is > 0xFFFF, there are 3 active tblptr bytes
  1548   001CF0  0E00               	movlw	low (__mediumconst shr (0+16))
  1549   001CF2  6EF8               	movwf	tblptru,c
  1550   001CF4                     	endif
  1551   001CF4  0008               	tblrd		*
  1552   001CF6  50F5               	movf	tablat,w,c
  1553   001CF8  0A64               	xorlw	100
  1554   001CFA  B4D8               	btfsc	status,2,c
  1555   001CFC  EF82  F00E         	goto	u4431
  1556   001D00  EF84  F00E         	goto	u4430
  1557   001D04                     u4431:
  1558   001D04  EF94  F00E         	goto	l4128
  1559   001D08                     u4430:
  1560   001D08  C07B  FFF6         	movff	vfpfcnvrt@cp,tblptrl
  1561   001D0C  C07C  FFF7         	movff	vfpfcnvrt@cp+1,tblptrh
  1562   001D10                     	if	0	;tblptru may be non-zero
  1563   001D10                     	endif
  1564   001D10                     	if	1	;Program memory is > 0xFFFF, there are 3 active tblptr bytes
  1565   001D10  0E00               	movlw	low (__mediumconst shr (0+16))
  1566   001D12  6EF8               	movwf	tblptru,c
  1567   001D14                     	endif
  1568   001D14  0008               	tblrd		*
  1569   001D16  50F5               	movf	tablat,w,c
  1570   001D18  0A69               	xorlw	105
  1571   001D1A  A4D8               	btfss	status,2,c
  1572   001D1C  EF92  F00E         	goto	u4441
  1573   001D20  EF94  F00E         	goto	u4440
  1574   001D24                     u4441:
  1575   001D24  EFD8  F00E         	goto	l4134
  1576   001D28                     u4440:
  1577   001D28                     l4128:
  1578                           
  1579                           ;D:\MPLAB_COMPILER\pic\sources\c99\common\doprnt.c: 1230:    convarg.ll = (long long)(in
      +                          t)(*(int *)__va_arg(*(int **)ap, (int)0));
  1580   001D28  C03D  FFD9         	movff	vfpfcnvrt@ap,fsr2l
  1581   001D2C  C03E  FFDA         	movff	vfpfcnvrt@ap+1,fsr2h
  1582   001D30  CFDF F03F          	movff	indf2,??_vfpfcnvrt
  1583   001D34  0E02               	movlw	2
  1584   001D36  26DE               	addwf	postinc2,f,c
  1585   001D38  CFDF F040          	movff	indf2,??_vfpfcnvrt+1
  1586   001D3C  0E00               	movlw	0
  1587   001D3E  22DD               	addwfc	postdec2,f,c
  1588   001D40  C03F  FFD9         	movff	??_vfpfcnvrt,fsr2l
  1589   001D44  C040  FFDA         	movff	??_vfpfcnvrt+1,fsr2h
  1590   001D48  CFDE F071          	movff	postinc2,vfpfcnvrt@convarg
  1591   001D4C  CFDD F072          	movff	postdec2,vfpfcnvrt@convarg+1
  1592   001D50  0100               	movlb	0	; () banked
  1593   001D52  0E00               	movlw	0
  1594   001D54  BF72               	btfsc	(vfpfcnvrt@convarg+1)& (0+255),7,b
  1595   001D56  0EFF               	movlw	-1
  1596   001D58  6F73               	movwf	(vfpfcnvrt@convarg+2)& (0+255),b
  1597   001D5A  6F74               	movwf	(vfpfcnvrt@convarg+3)& (0+255),b
  1598   001D5C  6F75               	movwf	(vfpfcnvrt@convarg+4)& (0+255),b
  1599   001D5E  6F76               	movwf	(vfpfcnvrt@convarg+5)& (0+255),b
  1600   001D60  6F77               	movwf	(vfpfcnvrt@convarg+6)& (0+255),b
  1601   001D62  6F78               	movwf	(vfpfcnvrt@convarg+7)& (0+255),b
  1602                           
  1603                           ;D:\MPLAB_COMPILER\pic\sources\c99\common\doprnt.c: 1232:    *fmt = cp+1;
  1604   001D64  0E01               	movlw	1
  1605   001D66  257B               	addwf	vfpfcnvrt@cp& (0+255),w,b
  1606   001D68  6E3F               	movwf	??_vfpfcnvrt^0,c
  1607   001D6A  0E00               	movlw	0
  1608   001D6C  217C               	addwfc	(vfpfcnvrt@cp+1)& (0+255),w,b
  1609   001D6E  6E40               	movwf	(??_vfpfcnvrt+1)^0,c
  1610   001D70  C03B  FFD9         	movff	vfpfcnvrt@fmt,fsr2l
  1611   001D74  C03C  FFDA         	movff	vfpfcnvrt@fmt+1,fsr2h
  1612   001D78  C03F  FFDE         	movff	??_vfpfcnvrt,postinc2
  1613   001D7C  C040  FFDD         	movff	??_vfpfcnvrt+1,postdec2
  1614   001D80                     
  1615                           ; BSR set to: 0
  1616                           ;D:\MPLAB_COMPILER\pic\sources\c99\common\doprnt.c: 1233:    return (void) dtoa(fp, conv
      +                          arg.ll);;	Return value of _vfpfcnvrt is never used
  1617   001D80  C039  F027         	movff	vfpfcnvrt@fp,dtoa@fp
  1618   001D84  C03A  F028         	movff	vfpfcnvrt@fp+1,dtoa@fp+1
  1619   001D88  C071  F029         	movff	vfpfcnvrt@convarg,dtoa@d
  1620   001D8C  C072  F02A         	movff	vfpfcnvrt@convarg+1,dtoa@d+1
  1621   001D90  C073  F02B         	movff	vfpfcnvrt@convarg+2,dtoa@d+2
  1622   001D94  C074  F02C         	movff	vfpfcnvrt@convarg+3,dtoa@d+3
  1623   001D98  C075  F02D         	movff	vfpfcnvrt@convarg+4,dtoa@d+4
  1624   001D9C  C076  F02E         	movff	vfpfcnvrt@convarg+5,dtoa@d+5
  1625   001DA0  C077  F02F         	movff	vfpfcnvrt@convarg+6,dtoa@d+6
  1626   001DA4  C078  F030         	movff	vfpfcnvrt@convarg+7,dtoa@d+7
  1627   001DA8  ECF8  F00E         	call	_dtoa	;wreg free
  1628   001DAC  EFF7  F00E         	goto	l1211
  1629   001DB0                     l4134:
  1630                           
  1631                           ;D:\MPLAB_COMPILER\pic\sources\c99\common\doprnt.c: 1509:         ++*fmt;
  1632   001DB0  C03B  FFD9         	movff	vfpfcnvrt@fmt,fsr2l
  1633   001DB4  C03C  FFDA         	movff	vfpfcnvrt@fmt+1,fsr2h
  1634   001DB8  2ADE               	incf	postinc2,f,c
  1635   001DBA  0E00               	movlw	0
  1636   001DBC  22DD               	addwfc	postdec2,f,c
  1637   001DBE  EFF7  F00E         	goto	l1211
  1638   001DC2                     l4138:
  1639                           
  1640                           ;D:\MPLAB_COMPILER\pic\sources\c99\common\doprnt.c: 1514:     fputc((int)(*fmt)[0], fp);
  1641   001DC2  C03B  FFD9         	movff	vfpfcnvrt@fmt,fsr2l
  1642   001DC6  C03C  FFDA         	movff	vfpfcnvrt@fmt+1,fsr2h
  1643   001DCA  CFDE FFF6          	movff	postinc2,tblptrl
  1644   001DCE  CFDD FFF7          	movff	postdec2,tblptrh
  1645   001DD2                     	if	0	;tblptru may be non-zero
  1646   001DD2                     	endif
  1647   001DD2                     	if	1	;Program memory is > 0xFFFF, there are 3 active tblptr bytes
  1648   001DD2  0E00               	movlw	low (__mediumconst shr (0+16))
  1649   001DD4  6EF8               	movwf	tblptru,c
  1650   001DD6                     	endif
  1651   001DD6  0008               	tblrd		*
  1652   001DD8  50F5               	movf	tablat,w,c
  1653   001DDA  6E0C               	movwf	fputc@c^0,c
  1654   001DDC  6A0D               	clrf	(fputc@c+1)^0,c
  1655   001DDE  C039  F00E         	movff	vfpfcnvrt@fp,fputc@fp
  1656   001DE2  C03A  F00F         	movff	vfpfcnvrt@fp+1,fputc@fp+1
  1657   001DE6  EC54  F014         	call	_fputc	;wreg free
  1658   001DEA  EFD8  F00E         	goto	l4134
  1659   001DEE                     l1211:
  1660   001DEE  0012               	return		;funcret
  1661   001DF0                     __end_of_vfpfcnvrt:
  1662                           	callstack 0
  1663                           
  1664 ;; *************** function _dtoa *****************
  1665 ;; Defined at:
  1666 ;;		line 443 in file "D:\MPLAB_COMPILER\pic\sources\c99\common\doprnt.c"
  1667 ;; Parameters:    Size  Location     Type
  1668 ;;  fp              2   38[COMRAM] PTR struct _IO_FILE
  1669 ;;		 -> sprintf@f(11), 
  1670 ;;  d               8   40[COMRAM] long long 
  1671 ;; Auto vars:     Size  Location     Type
  1672 ;;  n               8    6[BANK0 ] long long 
  1673 ;;  i               2   15[BANK0 ] int 
  1674 ;;  w               2    4[BANK0 ] int 
  1675 ;;  p               2    2[BANK0 ] int 
  1676 ;;  s               1   14[BANK0 ] unsigned char 
  1677 ;; Return value:  Size  Location     Type
  1678 ;;                  1    wreg      void 
  1679 ;; Registers used:
  1680 ;;		wreg, fsr1l, fsr1h, fsr2l, fsr2h, status,2, status,0, cstack
  1681 ;; Tracked objects:
  1682 ;;		On entry : 0/0
  1683 ;;		On exit  : 0/0
  1684 ;;		Unchanged: 0/0
  1685 ;; Data sizes:     COMRAM   BANK0   BANK1   BANK2   BANK3   BANK4   BANK5   BANK6   BANK7   BANK8   BANK9  BANK10  BANK1
      +1  BANK12  BANK13
  1686 ;;      Params:        10       0       0       0       0       0       0       0       0       0       0       0       
      +0       0       0
  1687 ;;      Locals:         0      17       0       0       0       0       0       0       0       0       0       0       
      +0       0       0
  1688 ;;      Temps:          8       0       0       0       0       0       0       0       0       0       0       0       
      +0       0       0
  1689 ;;      Totals:        18      17       0       0       0       0       0       0       0       0       0       0       
      +0       0       0
  1690 ;;Total ram usage:       35 bytes
  1691 ;; Hardware stack levels used: 1
  1692 ;; Hardware stack levels required when called: 11
  1693 ;; This function calls:
  1694 ;;		___aodiv
  1695 ;;		___aomod
  1696 ;;		_abs
  1697 ;;		_pad
  1698 ;; This function is called by:
  1699 ;;		_vfpfcnvrt
  1700 ;; This function uses a non-reentrant model
  1701 ;;
  1702                           
  1703                           	psect	text4
  1704   001DF0                     __ptext4:
  1705                           	callstack 0
  1706   001DF0                     _dtoa:
  1707                           	callstack 16
  1708   001DF0                     
  1709                           ;D:\MPLAB_COMPILER\pic\sources\c99\common\doprnt.c: 443: static void dtoa(FILE *fp, long
      +                           long d);D:\MPLAB_COMPILER\pic\sources\c99\common\doprnt.c: 444: {;D:\MPLAB_COMPILER\pic
      +                          \sources\c99\common\doprnt.c: 445:  char s;;D:\MPLAB_COMPILER\pic\sources\c99\common\dop
      +                          rnt.c: 446:     int i, p, w;;D:\MPLAB_COMPILER\pic\sources\c99\common\doprnt.c: 447:    
      +                           long long n;;D:\MPLAB_COMPILER\pic\sources\c99\common\doprnt.c: 450:     n = d;
  1710   001DF0  C029  F066         	movff	dtoa@d,dtoa@n
  1711   001DF4  C02A  F067         	movff	dtoa@d+1,dtoa@n+1
  1712   001DF8  C02B  F068         	movff	dtoa@d+2,dtoa@n+2
  1713   001DFC  C02C  F069         	movff	dtoa@d+3,dtoa@n+3
  1714   001E00  C02D  F06A         	movff	dtoa@d+4,dtoa@n+4
  1715   001E04  C02E  F06B         	movff	dtoa@d+5,dtoa@n+5
  1716   001E08  C02F  F06C         	movff	dtoa@d+6,dtoa@n+6
  1717   001E0C  C030  F06D         	movff	dtoa@d+7,dtoa@n+7
  1718   001E10                     
  1719                           ;D:\MPLAB_COMPILER\pic\sources\c99\common\doprnt.c: 451:     s = n < 0 ? 1 : 0;
  1720   001E10  0100               	movlb	0	; () banked
  1721   001E12  BF6D               	btfsc	(dtoa@n+7)& (0+255),7,b
  1722   001E14  EF0E  F00F         	goto	u4191
  1723   001E18  EF11  F00F         	goto	u4190
  1724   001E1C                     u4191:
  1725   001E1C  0E01               	movlw	1
  1726   001E1E  EF12  F00F         	goto	u4200
  1727   001E22                     u4190:
  1728   001E22  0E00               	movlw	0
  1729   001E24                     u4200:
  1730   001E24  6F6E               	movwf	dtoa@s& (0+255),b
  1731   001E26                     
  1732                           ; BSR set to: 0
  1733                           ;D:\MPLAB_COMPILER\pic\sources\c99\common\doprnt.c: 452:     if (s) {
  1734   001E26  516E               	movf	dtoa@s& (0+255),w,b
  1735   001E28  B4D8               	btfsc	status,2,c
  1736   001E2A  EF19  F00F         	goto	u4211
  1737   001E2E  EF1B  F00F         	goto	u4210
  1738   001E32                     u4211:
  1739   001E32  EF2B  F00F         	goto	l3968
  1740   001E36                     u4210:
  1741   001E36                     
  1742                           ; BSR set to: 0
  1743                           ;D:\MPLAB_COMPILER\pic\sources\c99\common\doprnt.c: 453:         n = -n;
  1744   001E36  1F6D               	comf	(dtoa@n+7)& (0+255),f,b
  1745   001E38  1F6C               	comf	(dtoa@n+6)& (0+255),f,b
  1746   001E3A  1F6B               	comf	(dtoa@n+5)& (0+255),f,b
  1747   001E3C  1F6A               	comf	(dtoa@n+4)& (0+255),f,b
  1748   001E3E  1F69               	comf	(dtoa@n+3)& (0+255),f,b
  1749   001E40  1F68               	comf	(dtoa@n+2)& (0+255),f,b
  1750   001E42  1F67               	comf	(dtoa@n+1)& (0+255),f,b
  1751   001E44  6D66               	negf	dtoa@n& (0+255),b
  1752   001E46  0E00               	movlw	0
  1753   001E48  2367               	addwfc	(dtoa@n+1)& (0+255),f,b
  1754   001E4A  2368               	addwfc	(dtoa@n+2)& (0+255),f,b
  1755   001E4C  2369               	addwfc	(dtoa@n+3)& (0+255),f,b
  1756   001E4E  236A               	addwfc	(dtoa@n+4)& (0+255),f,b
  1757   001E50  236B               	addwfc	(dtoa@n+5)& (0+255),f,b
  1758   001E52  236C               	addwfc	(dtoa@n+6)& (0+255),f,b
  1759   001E54  236D               	addwfc	(dtoa@n+7)& (0+255),f,b
  1760   001E56                     l3968:
  1761                           
  1762                           ; BSR set to: 0
  1763                           ;D:\MPLAB_COMPILER\pic\sources\c99\common\doprnt.c: 458:     if (!(prec < 0)) {
  1764   001E56  BE4A               	btfsc	(_prec+1)^0,7,c
  1765   001E58  EF30  F00F         	goto	u4221
  1766   001E5C  EF32  F00F         	goto	u4220
  1767   001E60                     u4221:
  1768   001E60  EF33  F00F         	goto	l3972
  1769   001E64                     u4220:
  1770   001E64                     
  1771                           ; BSR set to: 0
  1772                           ;D:\MPLAB_COMPILER\pic\sources\c99\common\doprnt.c: 459:         flags &= ~(1 << 1);
  1773   001E64  924D               	bcf	_flags^0,1,c
  1774   001E66                     l3972:
  1775                           
  1776                           ; BSR set to: 0
  1777                           ;D:\MPLAB_COMPILER\pic\sources\c99\common\doprnt.c: 462:     p = (0 < prec) ? prec : 1;
  1778   001E66  BE4A               	btfsc	(_prec+1)^0,7,c
  1779   001E68  EF40  F00F         	goto	u4230
  1780   001E6C  504A               	movf	(_prec+1)^0,w,c
  1781   001E6E  E106               	bnz	u4231
  1782   001E70  0449               	decf	_prec^0,w,c
  1783   001E72  B0D8               	btfsc	status,0,c
  1784   001E74  EF3E  F00F         	goto	u4231
  1785   001E78  EF40  F00F         	goto	u4230
  1786   001E7C                     u4231:
  1787   001E7C  EF46  F00F         	goto	l1173
  1788   001E80                     u4230:
  1789   001E80                     
  1790                           ; BSR set to: 0
  1791   001E80  0E00               	movlw	0
  1792   001E82  6F63               	movwf	(dtoa@p+1)& (0+255),b
  1793   001E84  0E01               	movlw	1
  1794   001E86  6F62               	movwf	dtoa@p& (0+255),b
  1795   001E88  EF4A  F00F         	goto	l1175
  1796   001E8C                     l1173:
  1797                           
  1798                           ; BSR set to: 0
  1799   001E8C  C049  F062         	movff	_prec,dtoa@p
  1800   001E90  C04A  F063         	movff	_prec+1,dtoa@p+1
  1801   001E94                     l1175:
  1802                           
  1803                           ; BSR set to: 0
  1804                           ;D:\MPLAB_COMPILER\pic\sources\c99\common\doprnt.c: 463:     w = width;
  1805   001E94  C0B2  F064         	movff	_width,dtoa@w
  1806   001E98  C0B3  F065         	movff	_width+1,dtoa@w+1
  1807   001E9C                     
  1808                           ; BSR set to: 0
  1809                           ;D:\MPLAB_COMPILER\pic\sources\c99\common\doprnt.c: 464:     if (s
  1810   001E9C  516E               	movf	dtoa@s& (0+255),w,b
  1811   001E9E  B4D8               	btfsc	status,2,c
  1812   001EA0  EF54  F00F         	goto	u4241
  1813   001EA4  EF56  F00F         	goto	u4240
  1814   001EA8                     u4241:
  1815   001EA8  EF6D  F00F         	goto	l1176
  1816   001EAC                     u4240:
  1817   001EAC                     
  1818                           ; BSR set to: 0
  1819                           ;D:\MPLAB_COMPILER\pic\sources\c99\common\doprnt.c: 468:     ) {;D:\MPLAB_COMPILER\pic\s
      +                          ources\c99\common\doprnt.c: 469:         --w;
  1820   001EAC  0764               	decf	dtoa@w& (0+255),f,b
  1821   001EAE  A0D8               	btfss	status,0,c
  1822   001EB0  0765               	decf	(dtoa@w+1)& (0+255),f,b
  1823   001EB2                     
  1824                           ; BSR set to: 0
  1825                           ;D:\MPLAB_COMPILER\pic\sources\c99\common\doprnt.c: 470:   s = s ? '-' : '+';
  1826   001EB2  516E               	movf	dtoa@s& (0+255),w,b
  1827   001EB4  A4D8               	btfss	status,2,c
  1828   001EB6  EF5F  F00F         	goto	u4251
  1829   001EBA  EF61  F00F         	goto	u4250
  1830   001EBE                     u4251:
  1831   001EBE  EF67  F00F         	goto	l3984
  1832   001EC2                     u4250:
  1833   001EC2                     
  1834                           ; BSR set to: 0
  1835   001EC2  0E00               	movlw	0
  1836   001EC4  6F61               	movwf	(_dtoa$2396+1)& (0+255),b
  1837   001EC6  0E2B               	movlw	43
  1838   001EC8  6F60               	movwf	_dtoa$2396& (0+255),b
  1839   001ECA  EF6B  F00F         	goto	l3986
  1840   001ECE                     l3984:
  1841                           
  1842                           ; BSR set to: 0
  1843   001ECE  0E00               	movlw	0
  1844   001ED0  6F61               	movwf	(_dtoa$2396+1)& (0+255),b
  1845   001ED2  0E2D               	movlw	45
  1846   001ED4  6F60               	movwf	_dtoa$2396& (0+255),b
  1847   001ED6                     l3986:
  1848                           
  1849                           ; BSR set to: 0
  1850   001ED6  C060  F06E         	movff	_dtoa$2396,dtoa@s
  1851   001EDA                     l1176:
  1852                           
  1853                           ; BSR set to: 0
  1854                           ;D:\MPLAB_COMPILER\pic\sources\c99\common\doprnt.c: 480:     i = sizeof(dbuf) - 1;
  1855   001EDA  0E00               	movlw	0
  1856   001EDC  6F70               	movwf	(dtoa@i+1)& (0+255),b
  1857   001EDE  0E1F               	movlw	31
  1858   001EE0  6F6F               	movwf	dtoa@i& (0+255),b
  1859   001EE2                     
  1860                           ; BSR set to: 0
  1861                           ;D:\MPLAB_COMPILER\pic\sources\c99\common\doprnt.c: 481:     dbuf[i] = '\0';
  1862   001EE2  0E00               	movlw	0
  1863   001EE4  6FD5               	movwf	(_dbuf+31)& (0+255),b
  1864                           
  1865                           ;D:\MPLAB_COMPILER\pic\sources\c99\common\doprnt.c: 482:     while (!(i < 1) && (n || (0
      +                           < p)
  1866   001EE6  EFF2  F00F         	goto	l4000
  1867   001EEA                     l3990:
  1868                           
  1869                           ; BSR set to: 0
  1870                           ;D:\MPLAB_COMPILER\pic\sources\c99\common\doprnt.c: 486:     )) {;D:\MPLAB_COMPILER\pic\
      +                          sources\c99\common\doprnt.c: 487:         --i;
  1871   001EEA  076F               	decf	dtoa@i& (0+255),f,b
  1872   001EEC  A0D8               	btfss	status,0,c
  1873   001EEE  0770               	decf	(dtoa@i+1)& (0+255),f,b
  1874   001EF0                     
  1875                           ; BSR set to: 0
  1876                           ;D:\MPLAB_COMPILER\pic\sources\c99\common\doprnt.c: 488:         dbuf[i] = (char)((int)'
      +                          0' + abs(n % 10));
  1877   001EF0  0EB6               	movlw	low _dbuf
  1878   001EF2  256F               	addwf	dtoa@i& (0+255),w,b
  1879   001EF4  6ED9               	movwf	fsr2l,c
  1880   001EF6  0E00               	movlw	high _dbuf
  1881   001EF8  2170               	addwfc	(dtoa@i+1)& (0+255),w,b
  1882   001EFA  6EDA               	movwf	fsr2h,c
  1883   001EFC  C066  F00C         	movff	dtoa@n,___aomod@dividend
  1884   001F00  C067  F00D         	movff	dtoa@n+1,___aomod@dividend+1
  1885   001F04  C068  F00E         	movff	dtoa@n+2,___aomod@dividend+2
  1886   001F08  C069  F00F         	movff	dtoa@n+3,___aomod@dividend+3
  1887   001F0C  C06A  F010         	movff	dtoa@n+4,___aomod@dividend+4
  1888   001F10  C06B  F011         	movff	dtoa@n+5,___aomod@dividend+5
  1889   001F14  C06C  F012         	movff	dtoa@n+6,___aomod@dividend+6
  1890   001F18  C06D  F013         	movff	dtoa@n+7,___aomod@dividend+7
  1891   001F1C  0E0A               	movlw	10
  1892   001F1E  6E14               	movwf	___aomod@divisor^0,c
  1893   001F20  0E00               	movlw	0
  1894   001F22  6E15               	movwf	(___aomod@divisor+1)^0,c
  1895   001F24  0E00               	movlw	0
  1896   001F26  6E16               	movwf	(___aomod@divisor+2)^0,c
  1897   001F28  0E00               	movlw	0
  1898   001F2A  6E17               	movwf	(___aomod@divisor+3)^0,c
  1899   001F2C  0E00               	movlw	0
  1900   001F2E  6E18               	movwf	(___aomod@divisor+4)^0,c
  1901   001F30  0E00               	movlw	0
  1902   001F32  6E19               	movwf	(___aomod@divisor+5)^0,c
  1903   001F34  0E00               	movlw	0
  1904   001F36  6E1A               	movwf	(___aomod@divisor+6)^0,c
  1905   001F38  0E00               	movlw	0
  1906   001F3A  6E1B               	movwf	(___aomod@divisor+7)^0,c
  1907   001F3C  ECF2  F011         	call	___aomod	;wreg free
  1908   001F40  C00C  F031         	movff	?___aomod,??_dtoa
  1909   001F44  C00D  F032         	movff	?___aomod+1,??_dtoa+1
  1910   001F48  C00E  F033         	movff	?___aomod+2,??_dtoa+2
  1911   001F4C  C00F  F034         	movff	?___aomod+3,??_dtoa+3
  1912   001F50  C010  F035         	movff	?___aomod+4,??_dtoa+4
  1913   001F54  C011  F036         	movff	?___aomod+5,??_dtoa+5
  1914   001F58  C012  F037         	movff	?___aomod+6,??_dtoa+6
  1915   001F5C  C013  F038         	movff	?___aomod+7,??_dtoa+7
  1916   001F60  C031  F01E         	movff	??_dtoa,abs@a
  1917   001F64  C032  F01F         	movff	??_dtoa+1,abs@a+1
  1918   001F68  EC44  F017         	call	_abs	;wreg free
  1919   001F6C  501E               	movf	?_abs^0,w,c
  1920   001F6E  0F30               	addlw	48
  1921   001F70  6EDF               	movwf	indf2,c
  1922   001F72                     
  1923                           ;D:\MPLAB_COMPILER\pic\sources\c99\common\doprnt.c: 489:         --p;
  1924   001F72  0100               	movlb	0	; () banked
  1925   001F74  0762               	decf	dtoa@p& (0+255),f,b
  1926   001F76  A0D8               	btfss	status,0,c
  1927   001F78  0763               	decf	(dtoa@p+1)& (0+255),f,b
  1928   001F7A                     
  1929                           ; BSR set to: 0
  1930                           ;D:\MPLAB_COMPILER\pic\sources\c99\common\doprnt.c: 490:         --w;
  1931   001F7A  0764               	decf	dtoa@w& (0+255),f,b
  1932   001F7C  A0D8               	btfss	status,0,c
  1933   001F7E  0765               	decf	(dtoa@w+1)& (0+255),f,b
  1934   001F80                     
  1935                           ; BSR set to: 0
  1936                           ;D:\MPLAB_COMPILER\pic\sources\c99\common\doprnt.c: 491:         n = n / 10;
  1937   001F80  C066  F00C         	movff	dtoa@n,___aodiv@dividend
  1938   001F84  C067  F00D         	movff	dtoa@n+1,___aodiv@dividend+1
  1939   001F88  C068  F00E         	movff	dtoa@n+2,___aodiv@dividend+2
  1940   001F8C  C069  F00F         	movff	dtoa@n+3,___aodiv@dividend+3
  1941   001F90  C06A  F010         	movff	dtoa@n+4,___aodiv@dividend+4
  1942   001F94  C06B  F011         	movff	dtoa@n+5,___aodiv@dividend+5
  1943   001F98  C06C  F012         	movff	dtoa@n+6,___aodiv@dividend+6
  1944   001F9C  C06D  F013         	movff	dtoa@n+7,___aodiv@dividend+7
  1945   001FA0  0E0A               	movlw	10
  1946   001FA2  6E14               	movwf	___aodiv@divisor^0,c
  1947   001FA4  0E00               	movlw	0
  1948   001FA6  6E15               	movwf	(___aodiv@divisor+1)^0,c
  1949   001FA8  0E00               	movlw	0
  1950   001FAA  6E16               	movwf	(___aodiv@divisor+2)^0,c
  1951   001FAC  0E00               	movlw	0
  1952   001FAE  6E17               	movwf	(___aodiv@divisor+3)^0,c
  1953   001FB0  0E00               	movlw	0
  1954   001FB2  6E18               	movwf	(___aodiv@divisor+4)^0,c
  1955   001FB4  0E00               	movlw	0
  1956   001FB6  6E19               	movwf	(___aodiv@divisor+5)^0,c
  1957   001FB8  0E00               	movlw	0
  1958   001FBA  6E1A               	movwf	(___aodiv@divisor+6)^0,c
  1959   001FBC  0E00               	movlw	0
  1960   001FBE  6E1B               	movwf	(___aodiv@divisor+7)^0,c
  1961   001FC0  EC2E  F011         	call	___aodiv	;wreg free
  1962   001FC4  C00C  F066         	movff	?___aodiv,dtoa@n
  1963   001FC8  C00D  F067         	movff	?___aodiv+1,dtoa@n+1
  1964   001FCC  C00E  F068         	movff	?___aodiv+2,dtoa@n+2
  1965   001FD0  C00F  F069         	movff	?___aodiv+3,dtoa@n+3
  1966   001FD4  C010  F06A         	movff	?___aodiv+4,dtoa@n+4
  1967   001FD8  C011  F06B         	movff	?___aodiv+5,dtoa@n+5
  1968   001FDC  C012  F06C         	movff	?___aodiv+6,dtoa@n+6
  1969   001FE0  C013  F06D         	movff	?___aodiv+7,dtoa@n+7
  1970   001FE4                     l4000:
  1971                           
  1972                           ;D:\MPLAB_COMPILER\pic\sources\c99\common\doprnt.c: 482:     while (!(i < 1) && (n || (0
      +                           < p)
  1973   001FE4  0100               	movlb	0	; () banked
  1974   001FE6  BF70               	btfsc	(dtoa@i+1)& (0+255),7,b
  1975   001FE8  EFFE  F00F         	goto	u4261
  1976   001FEC  5170               	movf	(dtoa@i+1)& (0+255),w,b
  1977   001FEE  E108               	bnz	u4260
  1978   001FF0  056F               	decf	dtoa@i& (0+255),w,b
  1979   001FF2  A0D8               	btfss	status,0,c
  1980   001FF4  EFFE  F00F         	goto	u4261
  1981   001FF8  EF00  F010         	goto	u4260
  1982   001FFC                     u4261:
  1983   001FFC  EF30  F010         	goto	l4010
  1984   002000                     u4260:
  1985   002000                     
  1986                           ; BSR set to: 0
  1987   002000  5166               	movf	dtoa@n& (0+255),w,b
  1988   002002  1167               	iorwf	(dtoa@n+1)& (0+255),w,b
  1989   002004  1168               	iorwf	(dtoa@n+2)& (0+255),w,b
  1990   002006  1169               	iorwf	(dtoa@n+3)& (0+255),w,b
  1991   002008  116A               	iorwf	(dtoa@n+4)& (0+255),w,b
  1992   00200A  116B               	iorwf	(dtoa@n+5)& (0+255),w,b
  1993   00200C  116C               	iorwf	(dtoa@n+6)& (0+255),w,b
  1994   00200E  116D               	iorwf	(dtoa@n+7)& (0+255),w,b
  1995   002010  A4D8               	btfss	status,2,c
  1996   002012  EF0D  F010         	goto	u4271
  1997   002016  EF0F  F010         	goto	u4270
  1998   00201A                     u4271:
  1999   00201A  EF75  F00F         	goto	l3990
  2000   00201E                     u4270:
  2001   00201E                     
  2002                           ; BSR set to: 0
  2003   00201E  BF63               	btfsc	(dtoa@p+1)& (0+255),7,b
  2004   002020  EF1C  F010         	goto	u4280
  2005   002024  5163               	movf	(dtoa@p+1)& (0+255),w,b
  2006   002026  E106               	bnz	u4281
  2007   002028  0562               	decf	dtoa@p& (0+255),w,b
  2008   00202A  B0D8               	btfsc	status,0,c
  2009   00202C  EF1A  F010         	goto	u4281
  2010   002030  EF1C  F010         	goto	u4280
  2011   002034                     u4281:
  2012   002034  EF75  F00F         	goto	l3990
  2013   002038                     u4280:
  2014   002038                     
  2015                           ; BSR set to: 0
  2016   002038  BF65               	btfsc	(dtoa@w+1)& (0+255),7,b
  2017   00203A  EF27  F010         	goto	u4291
  2018   00203E  5165               	movf	(dtoa@w+1)& (0+255),w,b
  2019   002040  E108               	bnz	u4290
  2020   002042  0564               	decf	dtoa@w& (0+255),w,b
  2021   002044  A0D8               	btfss	status,0,c
  2022   002046  EF27  F010         	goto	u4291
  2023   00204A  EF29  F010         	goto	u4290
  2024   00204E                     u4291:
  2025   00204E  EF30  F010         	goto	l4010
  2026   002052                     u4290:
  2027   002052                     
  2028                           ; BSR set to: 0
  2029   002052  B24D               	btfsc	_flags^0,1,c
  2030   002054  EF2E  F010         	goto	u4301
  2031   002058  EF30  F010         	goto	u4300
  2032   00205C                     u4301:
  2033   00205C  EF75  F00F         	goto	l3990
  2034   002060                     u4300:
  2035   002060                     l4010:
  2036                           
  2037                           ; BSR set to: 0
  2038                           ;D:\MPLAB_COMPILER\pic\sources\c99\common\doprnt.c: 495:     if (s != 0) {
  2039   002060  516E               	movf	dtoa@s& (0+255),w,b
  2040   002062  B4D8               	btfsc	status,2,c
  2041   002064  EF36  F010         	goto	u4311
  2042   002068  EF38  F010         	goto	u4310
  2043   00206C                     u4311:
  2044   00206C  EF43  F010         	goto	l4016
  2045   002070                     u4310:
  2046   002070                     
  2047                           ; BSR set to: 0
  2048                           ;D:\MPLAB_COMPILER\pic\sources\c99\common\doprnt.c: 496:         --i;
  2049   002070  076F               	decf	dtoa@i& (0+255),f,b
  2050   002072  A0D8               	btfss	status,0,c
  2051   002074  0770               	decf	(dtoa@i+1)& (0+255),f,b
  2052   002076                     
  2053                           ; BSR set to: 0
  2054                           ;D:\MPLAB_COMPILER\pic\sources\c99\common\doprnt.c: 497:         dbuf[i] = s;
  2055   002076  0EB6               	movlw	low _dbuf
  2056   002078  256F               	addwf	dtoa@i& (0+255),w,b
  2057   00207A  6ED9               	movwf	fsr2l,c
  2058   00207C  0E00               	movlw	high _dbuf
  2059   00207E  2170               	addwfc	(dtoa@i+1)& (0+255),w,b
  2060   002080  6EDA               	movwf	fsr2h,c
  2061   002082  C06E  FFDF         	movff	dtoa@s,indf2
  2062   002086                     l4016:
  2063                           
  2064                           ; BSR set to: 0
  2065                           ;D:\MPLAB_COMPILER\pic\sources\c99\common\doprnt.c: 501:     return (void) pad(fp, &dbuf
      +                          [i], w);
  2066   002086  C027  F01C         	movff	dtoa@fp,pad@fp
  2067   00208A  C028  F01D         	movff	dtoa@fp+1,pad@fp+1
  2068   00208E  0EB6               	movlw	low _dbuf
  2069   002090  256F               	addwf	dtoa@i& (0+255),w,b
  2070   002092  6E1E               	movwf	pad@buf^0,c
  2071   002094  0E00               	movlw	high _dbuf
  2072   002096  2170               	addwfc	(dtoa@i+1)& (0+255),w,b
  2073   002098  6E1F               	movwf	(pad@buf+1)^0,c
  2074   00209A  C064  F020         	movff	dtoa@w,pad@p
  2075   00209E  C065  F021         	movff	dtoa@w+1,pad@p+1
  2076   0020A2  ECB9  F014         	call	_pad	;wreg free
  2077   0020A6  0012               	return		;funcret
  2078   0020A8                     __end_of_dtoa:
  2079                           	callstack 0
  2080                           
  2081 ;; *************** function _pad *****************
  2082 ;; Defined at:
  2083 ;;		line 133 in file "D:\MPLAB_COMPILER\pic\sources\c99\common\doprnt.c"
  2084 ;; Parameters:    Size  Location     Type
  2085 ;;  fp              2   27[COMRAM] PTR struct _IO_FILE
  2086 ;;		 -> sprintf@f(11), 
  2087 ;;  buf             2   29[COMRAM] PTR unsigned char 
  2088 ;;		 -> dbuf(32), 
  2089 ;;  p               2   31[COMRAM] int 
  2090 ;; Auto vars:     Size  Location     Type
  2091 ;;  w               2   36[COMRAM] int 
  2092 ;;  i               2   34[COMRAM] int 
  2093 ;; Return value:  Size  Location     Type
  2094 ;;                  1    wreg      void 
  2095 ;; Registers used:
  2096 ;;		wreg, fsr1l, fsr1h, fsr2l, fsr2h, status,2, status,0, cstack
  2097 ;; Tracked objects:
  2098 ;;		On entry : 0/0
  2099 ;;		On exit  : 0/0
  2100 ;;		Unchanged: 0/0
  2101 ;; Data sizes:     COMRAM   BANK0   BANK1   BANK2   BANK3   BANK4   BANK5   BANK6   BANK7   BANK8   BANK9  BANK10  BANK1
      +1  BANK12  BANK13
  2102 ;;      Params:         6       0       0       0       0       0       0       0       0       0       0       0       
      +0       0       0
  2103 ;;      Locals:         4       0       0       0       0       0       0       0       0       0       0       0       
      +0       0       0
  2104 ;;      Temps:          1       0       0       0       0       0       0       0       0       0       0       0       
      +0       0       0
  2105 ;;      Totals:        11       0       0       0       0       0       0       0       0       0       0       0       
      +0       0       0
  2106 ;;Total ram usage:       11 bytes
  2107 ;; Hardware stack levels used: 1
  2108 ;; Hardware stack levels required when called: 10
  2109 ;; This function calls:
  2110 ;;		_fputc
  2111 ;;		_fputs
  2112 ;; This function is called by:
  2113 ;;		_dtoa
  2114 ;; This function uses a non-reentrant model
  2115 ;;
  2116                           
  2117                           	psect	text5
  2118   002972                     __ptext5:
  2119                           	callstack 0
  2120   002972                     _pad:
  2121                           	callstack 16
  2122   002972                     
  2123                           ;D:\MPLAB_COMPILER\pic\sources\c99\common\doprnt.c: 133: static void pad(FILE *fp, char 
      +                          *buf, int p);D:\MPLAB_COMPILER\pic\sources\c99\common\doprnt.c: 134: {;D:\MPLAB_COMPILER
      +                          \pic\sources\c99\common\doprnt.c: 135:     int i, w;;D:\MPLAB_COMPILER\pic\sources\c99\c
      +                          ommon\doprnt.c: 139:     if (flags & (1 << 0)) {
  2124   002972  A04D               	btfss	_flags^0,0,c
  2125   002974  EFBE  F014         	goto	u4101
  2126   002978  EFC0  F014         	goto	u4100
  2127   00297C                     u4101:
  2128   00297C  EFCA  F014         	goto	l3924
  2129   002980                     u4100:
  2130   002980                     
  2131                           ;D:\MPLAB_COMPILER\pic\sources\c99\common\doprnt.c: 140:         fputs((const char *)buf
      +                          , fp);
  2132   002980  C01E  F015         	movff	pad@buf,fputs@s
  2133   002984  C01F  F016         	movff	pad@buf+1,fputs@s+1
  2134   002988  C01C  F017         	movff	pad@fp,fputs@fp
  2135   00298C  C01D  F018         	movff	pad@fp+1,fputs@fp+1
  2136   002990  EC01  F017         	call	_fputs	;wreg free
  2137   002994                     l3924:
  2138                           
  2139                           ;D:\MPLAB_COMPILER\pic\sources\c99\common\doprnt.c: 145:     w = (p < 0) ? 0 : p;
  2140   002994  BE21               	btfsc	(pad@p+1)^0,7,c
  2141   002996  EFCF  F014         	goto	u4111
  2142   00299A  EFD1  F014         	goto	u4110
  2143   00299E                     u4111:
  2144   00299E  EFD7  F014         	goto	l3928
  2145   0029A2                     u4110:
  2146   0029A2  C020  F025         	movff	pad@p,pad@w
  2147   0029A6  C021  F026         	movff	pad@p+1,pad@w+1
  2148   0029AA  EFDB  F014         	goto	l1162
  2149   0029AE                     l3928:
  2150   0029AE  0E00               	movlw	0
  2151   0029B0  6E26               	movwf	(pad@w+1)^0,c
  2152   0029B2  0E00               	movlw	0
  2153   0029B4  6E25               	movwf	pad@w^0,c
  2154   0029B6                     l1162:
  2155                           
  2156                           ;D:\MPLAB_COMPILER\pic\sources\c99\common\doprnt.c: 146:     i = 0;
  2157   0029B6  0E00               	movlw	0
  2158   0029B8  6E24               	movwf	(pad@i+1)^0,c
  2159   0029BA  0E00               	movlw	0
  2160   0029BC  6E23               	movwf	pad@i^0,c
  2161                           
  2162                           ;D:\MPLAB_COMPILER\pic\sources\c99\common\doprnt.c: 147:     while (i < w) {
  2163   0029BE  EFED  F014         	goto	l3934
  2164   0029C2                     l3930:
  2165                           
  2166                           ;D:\MPLAB_COMPILER\pic\sources\c99\common\doprnt.c: 148:         fputc(' ', fp);
  2167   0029C2  0E00               	movlw	0
  2168   0029C4  6E0D               	movwf	(fputc@c+1)^0,c
  2169   0029C6  0E20               	movlw	32
  2170   0029C8  6E0C               	movwf	fputc@c^0,c
  2171   0029CA  C01C  F00E         	movff	pad@fp,fputc@fp
  2172   0029CE  C01D  F00F         	movff	pad@fp+1,fputc@fp+1
  2173   0029D2  EC54  F014         	call	_fputc	;wreg free
  2174   0029D6                     
  2175                           ;D:\MPLAB_COMPILER\pic\sources\c99\common\doprnt.c: 149:         ++i;
  2176   0029D6  4A23               	infsnz	pad@i^0,f,c
  2177   0029D8  2A24               	incf	(pad@i+1)^0,f,c
  2178   0029DA                     l3934:
  2179                           
  2180                           ;D:\MPLAB_COMPILER\pic\sources\c99\common\doprnt.c: 147:     while (i < w) {
  2181   0029DA  5025               	movf	pad@w^0,w,c
  2182   0029DC  5C23               	subwf	pad@i^0,w,c
  2183   0029DE  5024               	movf	(pad@i+1)^0,w,c
  2184   0029E0  0A80               	xorlw	128
  2185   0029E2  6E22               	movwf	??_pad^0,c
  2186   0029E4  5026               	movf	(pad@w+1)^0,w,c
  2187   0029E6  0A80               	xorlw	128
  2188   0029E8  5822               	subwfb	??_pad^0,w,c
  2189   0029EA  A0D8               	btfss	status,0,c
  2190   0029EC  EFFA  F014         	goto	u4121
  2191   0029F0  EFFC  F014         	goto	u4120
  2192   0029F4                     u4121:
  2193   0029F4  EFE1  F014         	goto	l3930
  2194   0029F8                     u4120:
  2195   0029F8                     
  2196                           ;D:\MPLAB_COMPILER\pic\sources\c99\common\doprnt.c: 154:     if (!(flags & (1 << 0))) {
  2197   0029F8  B04D               	btfsc	_flags^0,0,c
  2198   0029FA  EF01  F015         	goto	u4131
  2199   0029FE  EF03  F015         	goto	u4130
  2200   002A02                     u4131:
  2201   002A02  EF0D  F015         	goto	l1167
  2202   002A06                     u4130:
  2203   002A06                     
  2204                           ;D:\MPLAB_COMPILER\pic\sources\c99\common\doprnt.c: 156:         fputs((const char *)buf
      +                          , fp);
  2205   002A06  C01E  F015         	movff	pad@buf,fputs@s
  2206   002A0A  C01F  F016         	movff	pad@buf+1,fputs@s+1
  2207   002A0E  C01C  F017         	movff	pad@fp,fputs@fp
  2208   002A12  C01D  F018         	movff	pad@fp+1,fputs@fp+1
  2209   002A16  EC01  F017         	call	_fputs	;wreg free
  2210   002A1A                     l1167:
  2211   002A1A  0012               	return		;funcret
  2212   002A1C                     __end_of_pad:
  2213                           	callstack 0
  2214                           
  2215 ;; *************** function _fputs *****************
  2216 ;; Defined at:
  2217 ;;		line 8 in file "D:\MPLAB_COMPILER\pic\sources\c99\common\nf_fputs.c"
  2218 ;; Parameters:    Size  Location     Type
  2219 ;;  s               2   20[COMRAM] PTR const unsigned char 
  2220 ;;		 -> dbuf(32), 
  2221 ;;  fp              2   22[COMRAM] PTR struct _IO_FILE
  2222 ;;		 -> sprintf@f(11), 
  2223 ;; Auto vars:     Size  Location     Type
  2224 ;;  i               2   25[COMRAM] int 
  2225 ;;  c               1   24[COMRAM] unsigned char 
  2226 ;; Return value:  Size  Location     Type
  2227 ;;                  2   20[COMRAM] int 
  2228 ;; Registers used:
  2229 ;;		wreg, fsr1l, fsr1h, fsr2l, fsr2h, status,2, status,0, cstack
  2230 ;; Tracked objects:
  2231 ;;		On entry : 0/0
  2232 ;;		On exit  : 0/0
  2233 ;;		Unchanged: 0/0
  2234 ;; Data sizes:     COMRAM   BANK0   BANK1   BANK2   BANK3   BANK4   BANK5   BANK6   BANK7   BANK8   BANK9  BANK10  BANK1
      +1  BANK12  BANK13
  2235 ;;      Params:         4       0       0       0       0       0       0       0       0       0       0       0       
      +0       0       0
  2236 ;;      Locals:         3       0       0       0       0       0       0       0       0       0       0       0       
      +0       0       0
  2237 ;;      Temps:          0       0       0       0       0       0       0       0       0       0       0       0       
      +0       0       0
  2238 ;;      Totals:         7       0       0       0       0       0       0       0       0       0       0       0       
      +0       0       0
  2239 ;;Total ram usage:        7 bytes
  2240 ;; Hardware stack levels used: 1
  2241 ;; Hardware stack levels required when called: 9
  2242 ;; This function calls:
  2243 ;;		_fputc
  2244 ;; This function is called by:
  2245 ;;		_pad
  2246 ;; This function uses a non-reentrant model
  2247 ;;
  2248                           
  2249                           	psect	text6
  2250   002E02                     __ptext6:
  2251                           	callstack 0
  2252   002E02                     _fputs:
  2253                           	callstack 16
  2254   002E02  0E00               	movlw	0
  2255   002E04  6E1B               	movwf	(fputs@i+1)^0,c
  2256   002E06  0E00               	movlw	0
  2257   002E08  6E1A               	movwf	fputs@i^0,c
  2258   002E0A  EF12  F017         	goto	l3820
  2259   002E0E                     l3816:
  2260   002E0E  C019  F00C         	movff	fputs@c,fputc@c
  2261   002E12  6A0D               	clrf	(fputc@c+1)^0,c
  2262   002E14  C017  F00E         	movff	fputs@fp,fputc@fp
  2263   002E18  C018  F00F         	movff	fputs@fp+1,fputc@fp+1
  2264   002E1C  EC54  F014         	call	_fputc	;wreg free
  2265   002E20  4A1A               	infsnz	fputs@i^0,f,c
  2266   002E22  2A1B               	incf	(fputs@i+1)^0,f,c
  2267   002E24                     l3820:
  2268   002E24  501A               	movf	fputs@i^0,w,c
  2269   002E26  2415               	addwf	fputs@s^0,w,c
  2270   002E28  6ED9               	movwf	fsr2l,c
  2271   002E2A  501B               	movf	(fputs@i+1)^0,w,c
  2272   002E2C  2016               	addwfc	(fputs@s+1)^0,w,c
  2273   002E2E  6EDA               	movwf	fsr2h,c
  2274   002E30  50DF               	movf	indf2,w,c
  2275   002E32  6E19               	movwf	fputs@c^0,c
  2276   002E34  5019               	movf	fputs@c^0,w,c
  2277   002E36  A4D8               	btfss	status,2,c
  2278   002E38  EF20  F017         	goto	u3961
  2279   002E3C  EF22  F017         	goto	u3960
  2280   002E40                     u3961:
  2281   002E40  EF07  F017         	goto	l3816
  2282   002E44                     u3960:
  2283   002E44  0012               	return		;funcret
  2284   002E46                     __end_of_fputs:
  2285                           	callstack 0
  2286                           
  2287 ;; *************** function _fputc *****************
  2288 ;; Defined at:
  2289 ;;		line 8 in file "D:\MPLAB_COMPILER\pic\sources\c99\common\nf_fputc.c"
  2290 ;; Parameters:    Size  Location     Type
  2291 ;;  c               2   11[COMRAM] int 
  2292 ;;  fp              2   13[COMRAM] PTR struct _IO_FILE
  2293 ;;		 -> sprintf@f(11), 
  2294 ;; Auto vars:     Size  Location     Type
  2295 ;;		None
  2296 ;; Return value:  Size  Location     Type
  2297 ;;                  2   11[COMRAM] int 
  2298 ;; Registers used:
  2299 ;;		wreg, fsr1l, fsr1h, fsr2l, fsr2h, status,2, status,0, cstack
  2300 ;; Tracked objects:
  2301 ;;		On entry : 0/0
  2302 ;;		On exit  : 0/0
  2303 ;;		Unchanged: 0/0
  2304 ;; Data sizes:     COMRAM   BANK0   BANK1   BANK2   BANK3   BANK4   BANK5   BANK6   BANK7   BANK8   BANK9  BANK10  BANK1
      +1  BANK12  BANK13
  2305 ;;      Params:         4       0       0       0       0       0       0       0       0       0       0       0       
      +0       0       0
  2306 ;;      Locals:         0       0       0       0       0       0       0       0       0       0       0       0       
      +0       0       0
  2307 ;;      Temps:          5       0       0       0       0       0       0       0       0       0       0       0       
      +0       0       0
  2308 ;;      Totals:         9       0       0       0       0       0       0       0       0       0       0       0       
      +0       0       0
  2309 ;;Total ram usage:        9 bytes
  2310 ;; Hardware stack levels used: 1
  2311 ;; Hardware stack levels required when called: 8
  2312 ;; This function calls:
  2313 ;;		_putch
  2314 ;; This function is called by:
  2315 ;;		_pad
  2316 ;;		_vfpfcnvrt
  2317 ;;		_fputs
  2318 ;; This function uses a non-reentrant model
  2319 ;;
  2320                           
  2321                           	psect	text7
  2322   0028A8                     __ptext7:
  2323                           	callstack 0
  2324   0028A8                     _fputc:
  2325                           	callstack 19
  2326   0028A8  500E               	movf	fputc@fp^0,w,c
  2327   0028AA  100F               	iorwf	(fputc@fp+1)^0,w,c
  2328   0028AC  B4D8               	btfsc	status,2,c
  2329   0028AE  EF5B  F014         	goto	u3901
  2330   0028B2  EF5D  F014         	goto	u3900
  2331   0028B6                     u3901:
  2332   0028B6  EF66  F014         	goto	l3800
  2333   0028BA                     u3900:
  2334   0028BA  500E               	movf	fputc@fp^0,w,c
  2335   0028BC  100F               	iorwf	(fputc@fp+1)^0,w,c
  2336   0028BE  A4D8               	btfss	status,2,c
  2337   0028C0  EF64  F014         	goto	u3911
  2338   0028C4  EF66  F014         	goto	u3910
  2339   0028C8                     u3911:
  2340   0028C8  EF6B  F014         	goto	l3802
  2341   0028CC                     u3910:
  2342   0028CC                     l3800:
  2343   0028CC  500C               	movf	fputc@c^0,w,c
  2344   0028CE  EC1F  F019         	call	_putch
  2345   0028D2  EFB8  F014         	goto	l1275
  2346   0028D6                     l3802:
  2347   0028D6  EE20 F009          	lfsr	2,9
  2348   0028DA  500E               	movf	fputc@fp^0,w,c
  2349   0028DC  26D9               	addwf	fsr2l,f,c
  2350   0028DE  500F               	movf	(fputc@fp+1)^0,w,c
  2351   0028E0  22DA               	addwfc	fsr2h,f,c
  2352   0028E2  50DE               	movf	postinc2,w,c
  2353   0028E4  10DE               	iorwf	postinc2,w,c
  2354   0028E6  B4D8               	btfsc	status,2,c
  2355   0028E8  EF78  F014         	goto	u3921
  2356   0028EC  EF7A  F014         	goto	u3920
  2357   0028F0                     u3921:
  2358   0028F0  EF95  F014         	goto	l3806
  2359   0028F4                     u3920:
  2360   0028F4  EE20 F009          	lfsr	2,9
  2361   0028F8  500E               	movf	fputc@fp^0,w,c
  2362   0028FA  26D9               	addwf	fsr2l,f,c
  2363   0028FC  500F               	movf	(fputc@fp+1)^0,w,c
  2364   0028FE  22DA               	addwfc	fsr2h,f,c
  2365   002900  EE10 F003          	lfsr	1,3
  2366   002904  500E               	movf	fputc@fp^0,w,c
  2367   002906  26E1               	addwf	fsr1l,f,c
  2368   002908  500F               	movf	(fputc@fp+1)^0,w,c
  2369   00290A  22E2               	addwfc	fsr1h,f,c
  2370   00290C  50DE               	movf	postinc2,w,c
  2371   00290E  5CE6               	subwf	postinc1,w,c
  2372   002910  50E6               	movf	postinc1,w,c
  2373   002912  0A80               	xorlw	128
  2374   002914  6E14               	movwf	(??_fputc+4)^0,c
  2375   002916  50DE               	movf	postinc2,w,c
  2376   002918  0A80               	xorlw	128
  2377   00291A  5814               	subwfb	(??_fputc+4)^0,w,c
  2378   00291C  B0D8               	btfsc	status,0,c
  2379   00291E  EF93  F014         	goto	u3931
  2380   002922  EF95  F014         	goto	u3930
  2381   002926                     u3931:
  2382   002926  EFB8  F014         	goto	l1275
  2383   00292A                     u3930:
  2384   00292A                     l3806:
  2385   00292A  EE20 F003          	lfsr	2,3
  2386   00292E  500E               	movf	fputc@fp^0,w,c
  2387   002930  26D9               	addwf	fsr2l,f,c
  2388   002932  500F               	movf	(fputc@fp+1)^0,w,c
  2389   002934  22DA               	addwfc	fsr2h,f,c
  2390   002936  CFDE F010          	movff	postinc2,??_fputc
  2391   00293A  CFDD F011          	movff	postdec2,??_fputc+1
  2392   00293E  C00E  FFD9         	movff	fputc@fp,fsr2l
  2393   002942  C00F  FFDA         	movff	fputc@fp+1,fsr2h
  2394   002946  CFDE F012          	movff	postinc2,??_fputc+2
  2395   00294A  CFDD F013          	movff	postdec2,??_fputc+3
  2396   00294E  5010               	movf	??_fputc^0,w,c
  2397   002950  2412               	addwf	(??_fputc+2)^0,w,c
  2398   002952  6ED9               	movwf	fsr2l,c
  2399   002954  5011               	movf	(??_fputc+1)^0,w,c
  2400   002956  2013               	addwfc	(??_fputc+3)^0,w,c
  2401   002958  6EDA               	movwf	fsr2h,c
  2402   00295A  C00C  FFDF         	movff	fputc@c,indf2
  2403   00295E  EE20 F003          	lfsr	2,3
  2404   002962  500E               	movf	fputc@fp^0,w,c
  2405   002964  26D9               	addwf	fsr2l,f,c
  2406   002966  500F               	movf	(fputc@fp+1)^0,w,c
  2407   002968  22DA               	addwfc	fsr2h,f,c
  2408   00296A  2ADE               	incf	postinc2,f,c
  2409   00296C  0E00               	movlw	0
  2410   00296E  22DD               	addwfc	postdec2,f,c
  2411   002970                     l1275:
  2412   002970  0012               	return		;funcret
  2413   002972                     __end_of_fputc:
  2414                           	callstack 0
  2415                           
  2416 ;; *************** function _putch *****************
  2417 ;; Defined at:
  2418 ;;		line 7 in file "D:\MPLAB_COMPILER\pic\sources\c99\common\putch.c"
  2419 ;; Parameters:    Size  Location     Type
  2420 ;;  c               1    wreg     unsigned char 
  2421 ;; Auto vars:     Size  Location     Type
  2422 ;;  c               1    0[COMRAM] unsigned char 
  2423 ;; Return value:  Size  Location     Type
  2424 ;;                  1    wreg      void 
  2425 ;; Registers used:
  2426 ;;		wreg
  2427 ;; Tracked objects:
  2428 ;;		On entry : 0/0
  2429 ;;		On exit  : 0/0
  2430 ;;		Unchanged: 0/0
  2431 ;; Data sizes:     COMRAM   BANK0   BANK1   BANK2   BANK3   BANK4   BANK5   BANK6   BANK7   BANK8   BANK9  BANK10  BANK1
      +1  BANK12  BANK13
  2432 ;;      Params:         0       0       0       0       0       0       0       0       0       0       0       0       
      +0       0       0
  2433 ;;      Locals:         0       0       0       0       0       0       0       0       0       0       0       0       
      +0       0       0
  2434 ;;      Temps:          0       0       0       0       0       0       0       0       0       0       0       0       
      +0       0       0
  2435 ;;      Totals:         0       0       0       0       0       0       0       0       0       0       0       0       
      +0       0       0
  2436 ;;Total ram usage:        0 bytes
  2437 ;; Hardware stack levels used: 1
  2438 ;; Hardware stack levels required when called: 7
  2439 ;; This function calls:
  2440 ;;		Nothing
  2441 ;; This function is called by:
  2442 ;;		_fputc
  2443 ;; This function uses a non-reentrant model
  2444 ;;
  2445                           
  2446                           	psect	text8
  2447   00323E                     __ptext8:
  2448                           	callstack 0
  2449   00323E                     _putch:
  2450                           	callstack 19
  2451   00323E  0012               	return		;funcret
  2452   003240                     __end_of_putch:
  2453                           	callstack 0
  2454                           
  2455 ;; *************** function _abs *****************
  2456 ;; Defined at:
  2457 ;;		line 1 in file "D:\MPLAB_COMPILER\pic\sources\c99\common\abs.c"
  2458 ;; Parameters:    Size  Location     Type
  2459 ;;  a               2   29[COMRAM] int 
  2460 ;; Auto vars:     Size  Location     Type
  2461 ;;		None
  2462 ;; Return value:  Size  Location     Type
  2463 ;;                  2   29[COMRAM] int 
  2464 ;; Registers used:
  2465 ;;		wreg, status,2, status,0
  2466 ;; Tracked objects:
  2467 ;;		On entry : 0/0
  2468 ;;		On exit  : 0/0
  2469 ;;		Unchanged: 0/0
  2470 ;; Data sizes:     COMRAM   BANK0   BANK1   BANK2   BANK3   BANK4   BANK5   BANK6   BANK7   BANK8   BANK9  BANK10  BANK1
      +1  BANK12  BANK13
  2471 ;;      Params:         2       0       0       0       0       0       0       0       0       0       0       0       
      +0       0       0
  2472 ;;      Locals:         0       0       0       0       0       0       0       0       0       0       0       0       
      +0       0       0
  2473 ;;      Temps:          2       0       0       0       0       0       0       0       0       0       0       0       
      +0       0       0
  2474 ;;      Totals:         4       0       0       0       0       0       0       0       0       0       0       0       
      +0       0       0
  2475 ;;Total ram usage:        4 bytes
  2476 ;; Hardware stack levels used: 1
  2477 ;; Hardware stack levels required when called: 7
  2478 ;; This function calls:
  2479 ;;		Nothing
  2480 ;; This function is called by:
  2481 ;;		_dtoa
  2482 ;; This function uses a non-reentrant model
  2483 ;;
  2484                           
  2485                           	psect	text9
  2486   002E88                     __ptext9:
  2487                           	callstack 0
  2488   002E88                     _abs:
  2489                           	callstack 19
  2490   002E88  BE1F               	btfsc	(abs@a+1)^0,7,c
  2491   002E8A  EF51  F017         	goto	u4140
  2492   002E8E  501F               	movf	(abs@a+1)^0,w,c
  2493   002E90  E106               	bnz	u4141
  2494   002E92  041E               	decf	abs@a^0,w,c
  2495   002E94  B0D8               	btfsc	status,0,c
  2496   002E96  EF4F  F017         	goto	u4141
  2497   002E9A  EF51  F017         	goto	u4140
  2498   002E9E                     u4141:
  2499   002E9E  EF5F  F017         	goto	l1221
  2500   002EA2                     u4140:
  2501   002EA2  C01E  F020         	movff	abs@a,??_abs
  2502   002EA6  C01F  F021         	movff	abs@a+1,??_abs+1
  2503   002EAA  1E20               	comf	??_abs^0,f,c
  2504   002EAC  1E21               	comf	(??_abs+1)^0,f,c
  2505   002EAE  4A20               	infsnz	??_abs^0,f,c
  2506   002EB0  2A21               	incf	(??_abs+1)^0,f,c
  2507   002EB2  C020  F01E         	movff	??_abs,?_abs
  2508   002EB6  C021  F01F         	movff	??_abs+1,?_abs+1
  2509   002EBA  EF63  F017         	goto	l1224
  2510   002EBE                     l1221:
  2511   002EBE  C01E  F01E         	movff	abs@a,?_abs
  2512   002EC2  C01F  F01F         	movff	abs@a+1,?_abs+1
  2513   002EC6                     l1224:
  2514   002EC6  0012               	return		;funcret
  2515   002EC8                     __end_of_abs:
  2516                           	callstack 0
  2517                           
  2518 ;; *************** function ___aomod *****************
  2519 ;; Defined at:
  2520 ;;		line 9 in file "D:\MPLAB_COMPILER\pic\sources\c99\common\aomod.c"
  2521 ;; Parameters:    Size  Location     Type
  2522 ;;  dividend        8   11[COMRAM] long long 
  2523 ;;  divisor         8   19[COMRAM] long long 
  2524 ;; Auto vars:     Size  Location     Type
  2525 ;;  sign            1   28[COMRAM] unsigned char 
  2526 ;;  counter         1   27[COMRAM] unsigned char 
  2527 ;; Return value:  Size  Location     Type
  2528 ;;                  8   11[COMRAM] long long 
  2529 ;; Registers used:
  2530 ;;		wreg, status,2, status,0
  2531 ;; Tracked objects:
  2532 ;;		On entry : 0/0
  2533 ;;		On exit  : 0/0
  2534 ;;		Unchanged: 0/0
  2535 ;; Data sizes:     COMRAM   BANK0   BANK1   BANK2   BANK3   BANK4   BANK5   BANK6   BANK7   BANK8   BANK9  BANK10  BANK1
      +1  BANK12  BANK13
  2536 ;;      Params:        16       0       0       0       0       0       0       0       0       0       0       0       
      +0       0       0
  2537 ;;      Locals:         2       0       0       0       0       0       0       0       0       0       0       0       
      +0       0       0
  2538 ;;      Temps:          0       0       0       0       0       0       0       0       0       0       0       0       
      +0       0       0
  2539 ;;      Totals:        18       0       0       0       0       0       0       0       0       0       0       0       
      +0       0       0
  2540 ;;Total ram usage:       18 bytes
  2541 ;; Hardware stack levels used: 1
  2542 ;; Hardware stack levels required when called: 7
  2543 ;; This function calls:
  2544 ;;		Nothing
  2545 ;; This function is called by:
  2546 ;;		_dtoa
  2547 ;; This function uses a non-reentrant model
  2548 ;;
  2549                           
  2550                           	psect	text10
  2551   0023E4                     __ptext10:
  2552                           	callstack 0
  2553   0023E4                     ___aomod:
  2554                           	callstack 19
  2555   0023E4  0E00               	movlw	0
  2556   0023E6  6E1D               	movwf	___aomod@sign^0,c
  2557   0023E8  BE13               	btfsc	(___aomod@dividend+7)^0,7,c
  2558   0023EA  EFFB  F011         	goto	u4040
  2559   0023EE  EFF9  F011         	goto	u4041
  2560   0023F2                     u4041:
  2561   0023F2  EF0D  F012         	goto	l3892
  2562   0023F6                     u4040:
  2563   0023F6  1E13               	comf	(___aomod@dividend+7)^0,f,c
  2564   0023F8  1E12               	comf	(___aomod@dividend+6)^0,f,c
  2565   0023FA  1E11               	comf	(___aomod@dividend+5)^0,f,c
  2566   0023FC  1E10               	comf	(___aomod@dividend+4)^0,f,c
  2567   0023FE  1E0F               	comf	(___aomod@dividend+3)^0,f,c
  2568   002400  1E0E               	comf	(___aomod@dividend+2)^0,f,c
  2569   002402  1E0D               	comf	(___aomod@dividend+1)^0,f,c
  2570   002404  6C0C               	negf	___aomod@dividend^0,c
  2571   002406  0E00               	movlw	0
  2572   002408  220D               	addwfc	(___aomod@dividend+1)^0,f,c
  2573   00240A  220E               	addwfc	(___aomod@dividend+2)^0,f,c
  2574   00240C  220F               	addwfc	(___aomod@dividend+3)^0,f,c
  2575   00240E  2210               	addwfc	(___aomod@dividend+4)^0,f,c
  2576   002410  2211               	addwfc	(___aomod@dividend+5)^0,f,c
  2577   002412  2212               	addwfc	(___aomod@dividend+6)^0,f,c
  2578   002414  2213               	addwfc	(___aomod@dividend+7)^0,f,c
  2579   002416  0E01               	movlw	1
  2580   002418  6E1D               	movwf	___aomod@sign^0,c
  2581   00241A                     l3892:
  2582   00241A  BE1B               	btfsc	(___aomod@divisor+7)^0,7,c
  2583   00241C  EF14  F012         	goto	u4050
  2584   002420  EF12  F012         	goto	u4051
  2585   002424                     u4051:
  2586   002424  EF24  F012         	goto	l3896
  2587   002428                     u4050:
  2588   002428  1E1B               	comf	(___aomod@divisor+7)^0,f,c
  2589   00242A  1E1A               	comf	(___aomod@divisor+6)^0,f,c
  2590   00242C  1E19               	comf	(___aomod@divisor+5)^0,f,c
  2591   00242E  1E18               	comf	(___aomod@divisor+4)^0,f,c
  2592   002430  1E17               	comf	(___aomod@divisor+3)^0,f,c
  2593   002432  1E16               	comf	(___aomod@divisor+2)^0,f,c
  2594   002434  1E15               	comf	(___aomod@divisor+1)^0,f,c
  2595   002436  6C14               	negf	___aomod@divisor^0,c
  2596   002438  0E00               	movlw	0
  2597   00243A  2215               	addwfc	(___aomod@divisor+1)^0,f,c
  2598   00243C  2216               	addwfc	(___aomod@divisor+2)^0,f,c
  2599   00243E  2217               	addwfc	(___aomod@divisor+3)^0,f,c
  2600   002440  2218               	addwfc	(___aomod@divisor+4)^0,f,c
  2601   002442  2219               	addwfc	(___aomod@divisor+5)^0,f,c
  2602   002444  221A               	addwfc	(___aomod@divisor+6)^0,f,c
  2603   002446  221B               	addwfc	(___aomod@divisor+7)^0,f,c
  2604   002448                     l3896:
  2605   002448  5014               	movf	___aomod@divisor^0,w,c
  2606   00244A  1015               	iorwf	(___aomod@divisor+1)^0,w,c
  2607   00244C  1016               	iorwf	(___aomod@divisor+2)^0,w,c
  2608   00244E  1017               	iorwf	(___aomod@divisor+3)^0,w,c
  2609   002450  1018               	iorwf	(___aomod@divisor+4)^0,w,c
  2610   002452  1019               	iorwf	(___aomod@divisor+5)^0,w,c
  2611   002454  101A               	iorwf	(___aomod@divisor+6)^0,w,c
  2612   002456  101B               	iorwf	(___aomod@divisor+7)^0,w,c
  2613   002458  B4D8               	btfsc	status,2,c
  2614   00245A  EF31  F012         	goto	u4061
  2615   00245E  EF33  F012         	goto	u4060
  2616   002462                     u4061:
  2617   002462  EF7B  F012         	goto	l3912
  2618   002466                     u4060:
  2619   002466  0E01               	movlw	1
  2620   002468  6E1C               	movwf	___aomod@counter^0,c
  2621   00246A  EF41  F012         	goto	l3902
  2622   00246E                     l3900:
  2623   00246E  90D8               	bcf	status,0,c
  2624   002470  3614               	rlcf	___aomod@divisor^0,f,c
  2625   002472  3615               	rlcf	(___aomod@divisor+1)^0,f,c
  2626   002474  3616               	rlcf	(___aomod@divisor+2)^0,f,c
  2627   002476  3617               	rlcf	(___aomod@divisor+3)^0,f,c
  2628   002478  3618               	rlcf	(___aomod@divisor+4)^0,f,c
  2629   00247A  3619               	rlcf	(___aomod@divisor+5)^0,f,c
  2630   00247C  361A               	rlcf	(___aomod@divisor+6)^0,f,c
  2631   00247E  361B               	rlcf	(___aomod@divisor+7)^0,f,c
  2632   002480  2A1C               	incf	___aomod@counter^0,f,c
  2633   002482                     l3902:
  2634   002482  AE1B               	btfss	(___aomod@divisor+7)^0,7,c
  2635   002484  EF46  F012         	goto	u4071
  2636   002488  EF48  F012         	goto	u4070
  2637   00248C                     u4071:
  2638   00248C  EF37  F012         	goto	l3900
  2639   002490                     u4070:
  2640   002490                     l3904:
  2641   002490  5014               	movf	___aomod@divisor^0,w,c
  2642   002492  5C0C               	subwf	___aomod@dividend^0,w,c
  2643   002494  5015               	movf	(___aomod@divisor+1)^0,w,c
  2644   002496  580D               	subwfb	(___aomod@dividend+1)^0,w,c
  2645   002498  5016               	movf	(___aomod@divisor+2)^0,w,c
  2646   00249A  580E               	subwfb	(___aomod@dividend+2)^0,w,c
  2647   00249C  5017               	movf	(___aomod@divisor+3)^0,w,c
  2648   00249E  580F               	subwfb	(___aomod@dividend+3)^0,w,c
  2649   0024A0  5018               	movf	(___aomod@divisor+4)^0,w,c
  2650   0024A2  5810               	subwfb	(___aomod@dividend+4)^0,w,c
  2651   0024A4  5019               	movf	(___aomod@divisor+5)^0,w,c
  2652   0024A6  5811               	subwfb	(___aomod@dividend+5)^0,w,c
  2653   0024A8  501A               	movf	(___aomod@divisor+6)^0,w,c
  2654   0024AA  5812               	subwfb	(___aomod@dividend+6)^0,w,c
  2655   0024AC  501B               	movf	(___aomod@divisor+7)^0,w,c
  2656   0024AE  5813               	subwfb	(___aomod@dividend+7)^0,w,c
  2657   0024B0  A0D8               	btfss	status,0,c
  2658   0024B2  EF5D  F012         	goto	u4081
  2659   0024B6  EF5F  F012         	goto	u4080
  2660   0024BA                     u4081:
  2661   0024BA  EF6F  F012         	goto	l3908
  2662   0024BE                     u4080:
  2663   0024BE  5014               	movf	___aomod@divisor^0,w,c
  2664   0024C0  5E0C               	subwf	___aomod@dividend^0,f,c
  2665   0024C2  5015               	movf	(___aomod@divisor+1)^0,w,c
  2666   0024C4  5A0D               	subwfb	(___aomod@dividend+1)^0,f,c
  2667   0024C6  5016               	movf	(___aomod@divisor+2)^0,w,c
  2668   0024C8  5A0E               	subwfb	(___aomod@dividend+2)^0,f,c
  2669   0024CA  5017               	movf	(___aomod@divisor+3)^0,w,c
  2670   0024CC  5A0F               	subwfb	(___aomod@dividend+3)^0,f,c
  2671   0024CE  5018               	movf	(___aomod@divisor+4)^0,w,c
  2672   0024D0  5A10               	subwfb	(___aomod@dividend+4)^0,f,c
  2673   0024D2  5019               	movf	(___aomod@divisor+5)^0,w,c
  2674   0024D4  5A11               	subwfb	(___aomod@dividend+5)^0,f,c
  2675   0024D6  501A               	movf	(___aomod@divisor+6)^0,w,c
  2676   0024D8  5A12               	subwfb	(___aomod@dividend+6)^0,f,c
  2677   0024DA  501B               	movf	(___aomod@divisor+7)^0,w,c
  2678   0024DC  5A13               	subwfb	(___aomod@dividend+7)^0,f,c
  2679   0024DE                     l3908:
  2680   0024DE  90D8               	bcf	status,0,c
  2681   0024E0  321B               	rrcf	(___aomod@divisor+7)^0,f,c
  2682   0024E2  321A               	rrcf	(___aomod@divisor+6)^0,f,c
  2683   0024E4  3219               	rrcf	(___aomod@divisor+5)^0,f,c
  2684   0024E6  3218               	rrcf	(___aomod@divisor+4)^0,f,c
  2685   0024E8  3217               	rrcf	(___aomod@divisor+3)^0,f,c
  2686   0024EA  3216               	rrcf	(___aomod@divisor+2)^0,f,c
  2687   0024EC  3215               	rrcf	(___aomod@divisor+1)^0,f,c
  2688   0024EE  3214               	rrcf	___aomod@divisor^0,f,c
  2689   0024F0  2E1C               	decfsz	___aomod@counter^0,f,c
  2690   0024F2  EF48  F012         	goto	l3904
  2691   0024F6                     l3912:
  2692   0024F6  501D               	movf	___aomod@sign^0,w,c
  2693   0024F8  B4D8               	btfsc	status,2,c
  2694   0024FA  EF81  F012         	goto	u4091
  2695   0024FE  EF83  F012         	goto	u4090
  2696   002502                     u4091:
  2697   002502  EF93  F012         	goto	l3916
  2698   002506                     u4090:
  2699   002506  1E13               	comf	(___aomod@dividend+7)^0,f,c
  2700   002508  1E12               	comf	(___aomod@dividend+6)^0,f,c
  2701   00250A  1E11               	comf	(___aomod@dividend+5)^0,f,c
  2702   00250C  1E10               	comf	(___aomod@dividend+4)^0,f,c
  2703   00250E  1E0F               	comf	(___aomod@dividend+3)^0,f,c
  2704   002510  1E0E               	comf	(___aomod@dividend+2)^0,f,c
  2705   002512  1E0D               	comf	(___aomod@dividend+1)^0,f,c
  2706   002514  6C0C               	negf	___aomod@dividend^0,c
  2707   002516  0E00               	movlw	0
  2708   002518  220D               	addwfc	(___aomod@dividend+1)^0,f,c
  2709   00251A  220E               	addwfc	(___aomod@dividend+2)^0,f,c
  2710   00251C  220F               	addwfc	(___aomod@dividend+3)^0,f,c
  2711   00251E  2210               	addwfc	(___aomod@dividend+4)^0,f,c
  2712   002520  2211               	addwfc	(___aomod@dividend+5)^0,f,c
  2713   002522  2212               	addwfc	(___aomod@dividend+6)^0,f,c
  2714   002524  2213               	addwfc	(___aomod@dividend+7)^0,f,c
  2715   002526                     l3916:
  2716   002526  C00C  F00C         	movff	___aomod@dividend,?___aomod
  2717   00252A  C00D  F00D         	movff	___aomod@dividend+1,?___aomod+1
  2718   00252E  C00E  F00E         	movff	___aomod@dividend+2,?___aomod+2
  2719   002532  C00F  F00F         	movff	___aomod@dividend+3,?___aomod+3
  2720   002536  C010  F010         	movff	___aomod@dividend+4,?___aomod+4
  2721   00253A  C011  F011         	movff	___aomod@dividend+5,?___aomod+5
  2722   00253E  C012  F012         	movff	___aomod@dividend+6,?___aomod+6
  2723   002542  C013  F013         	movff	___aomod@dividend+7,?___aomod+7
  2724   002546  0012               	return		;funcret
  2725   002548                     __end_of___aomod:
  2726                           	callstack 0
  2727                           
  2728 ;; *************** function ___aodiv *****************
  2729 ;; Defined at:
  2730 ;;		line 9 in file "D:\MPLAB_COMPILER\pic\sources\c99\common\aodiv.c"
  2731 ;; Parameters:    Size  Location     Type
  2732 ;;  dividend        8   11[COMRAM] long long 
  2733 ;;  divisor         8   19[COMRAM] long long 
  2734 ;; Auto vars:     Size  Location     Type
  2735 ;;  quotient        8   29[COMRAM] long long 
  2736 ;;  sign            1   28[COMRAM] unsigned char 
  2737 ;;  counter         1   27[COMRAM] unsigned char 
  2738 ;; Return value:  Size  Location     Type
  2739 ;;                  8   11[COMRAM] long long 
  2740 ;; Registers used:
  2741 ;;		wreg, fsr2l, fsr2h, status,2, status,0
  2742 ;; Tracked objects:
  2743 ;;		On entry : 0/0
  2744 ;;		On exit  : 0/0
  2745 ;;		Unchanged: 0/0
  2746 ;; Data sizes:     COMRAM   BANK0   BANK1   BANK2   BANK3   BANK4   BANK5   BANK6   BANK7   BANK8   BANK9  BANK10  BANK1
      +1  BANK12  BANK13
  2747 ;;      Params:        16       0       0       0       0       0       0       0       0       0       0       0       
      +0       0       0
  2748 ;;      Locals:        10       0       0       0       0       0       0       0       0       0       0       0       
      +0       0       0
  2749 ;;      Temps:          0       0       0       0       0       0       0       0       0       0       0       0       
      +0       0       0
  2750 ;;      Totals:        26       0       0       0       0       0       0       0       0       0       0       0       
      +0       0       0
  2751 ;;Total ram usage:       26 bytes
  2752 ;; Hardware stack levels used: 1
  2753 ;; Hardware stack levels required when called: 7
  2754 ;; This function calls:
  2755 ;;		Nothing
  2756 ;; This function is called by:
  2757 ;;		_dtoa
  2758 ;; This function uses a non-reentrant model
  2759 ;;
  2760                           
  2761                           	psect	text11
  2762   00225C                     __ptext11:
  2763                           	callstack 0
  2764   00225C                     ___aodiv:
  2765                           	callstack 19
  2766   00225C  0E00               	movlw	0
  2767   00225E  6E1D               	movwf	___aodiv@sign^0,c
  2768   002260  BE1B               	btfsc	(___aodiv@divisor+7)^0,7,c
  2769   002262  EF37  F011         	goto	u3970
  2770   002266  EF35  F011         	goto	u3971
  2771   00226A                     u3971:
  2772   00226A  EF49  F011         	goto	l3848
  2773   00226E                     u3970:
  2774   00226E  1E1B               	comf	(___aodiv@divisor+7)^0,f,c
  2775   002270  1E1A               	comf	(___aodiv@divisor+6)^0,f,c
  2776   002272  1E19               	comf	(___aodiv@divisor+5)^0,f,c
  2777   002274  1E18               	comf	(___aodiv@divisor+4)^0,f,c
  2778   002276  1E17               	comf	(___aodiv@divisor+3)^0,f,c
  2779   002278  1E16               	comf	(___aodiv@divisor+2)^0,f,c
  2780   00227A  1E15               	comf	(___aodiv@divisor+1)^0,f,c
  2781   00227C  6C14               	negf	___aodiv@divisor^0,c
  2782   00227E  0E00               	movlw	0
  2783   002280  2215               	addwfc	(___aodiv@divisor+1)^0,f,c
  2784   002282  2216               	addwfc	(___aodiv@divisor+2)^0,f,c
  2785   002284  2217               	addwfc	(___aodiv@divisor+3)^0,f,c
  2786   002286  2218               	addwfc	(___aodiv@divisor+4)^0,f,c
  2787   002288  2219               	addwfc	(___aodiv@divisor+5)^0,f,c
  2788   00228A  221A               	addwfc	(___aodiv@divisor+6)^0,f,c
  2789   00228C  221B               	addwfc	(___aodiv@divisor+7)^0,f,c
  2790   00228E  0E01               	movlw	1
  2791   002290  6E1D               	movwf	___aodiv@sign^0,c
  2792   002292                     l3848:
  2793   002292  BE13               	btfsc	(___aodiv@dividend+7)^0,7,c
  2794   002294  EF50  F011         	goto	u3980
  2795   002298  EF4E  F011         	goto	u3981
  2796   00229C                     u3981:
  2797   00229C  EF62  F011         	goto	l3854
  2798   0022A0                     u3980:
  2799   0022A0  1E13               	comf	(___aodiv@dividend+7)^0,f,c
  2800   0022A2  1E12               	comf	(___aodiv@dividend+6)^0,f,c
  2801   0022A4  1E11               	comf	(___aodiv@dividend+5)^0,f,c
  2802   0022A6  1E10               	comf	(___aodiv@dividend+4)^0,f,c
  2803   0022A8  1E0F               	comf	(___aodiv@dividend+3)^0,f,c
  2804   0022AA  1E0E               	comf	(___aodiv@dividend+2)^0,f,c
  2805   0022AC  1E0D               	comf	(___aodiv@dividend+1)^0,f,c
  2806   0022AE  6C0C               	negf	___aodiv@dividend^0,c
  2807   0022B0  0E00               	movlw	0
  2808   0022B2  220D               	addwfc	(___aodiv@dividend+1)^0,f,c
  2809   0022B4  220E               	addwfc	(___aodiv@dividend+2)^0,f,c
  2810   0022B6  220F               	addwfc	(___aodiv@dividend+3)^0,f,c
  2811   0022B8  2210               	addwfc	(___aodiv@dividend+4)^0,f,c
  2812   0022BA  2211               	addwfc	(___aodiv@dividend+5)^0,f,c
  2813   0022BC  2212               	addwfc	(___aodiv@dividend+6)^0,f,c
  2814   0022BE  2213               	addwfc	(___aodiv@dividend+7)^0,f,c
  2815   0022C0  0E01               	movlw	1
  2816   0022C2  1A1D               	xorwf	___aodiv@sign^0,f,c
  2817   0022C4                     l3854:
  2818   0022C4  EE20  F01E         	lfsr	2,___aodiv@quotient
  2819   0022C8  0E07               	movlw	7
  2820   0022CA                     u3991:
  2821   0022CA  6ADE               	clrf	postinc2,c
  2822   0022CC  06E8               	decf	wreg,f,c
  2823   0022CE  E2FD               	bc	u3991
  2824   0022D0  5014               	movf	___aodiv@divisor^0,w,c
  2825   0022D2  1015               	iorwf	(___aodiv@divisor+1)^0,w,c
  2826   0022D4  1016               	iorwf	(___aodiv@divisor+2)^0,w,c
  2827   0022D6  1017               	iorwf	(___aodiv@divisor+3)^0,w,c
  2828   0022D8  1018               	iorwf	(___aodiv@divisor+4)^0,w,c
  2829   0022DA  1019               	iorwf	(___aodiv@divisor+5)^0,w,c
  2830   0022DC  101A               	iorwf	(___aodiv@divisor+6)^0,w,c
  2831   0022DE  101B               	iorwf	(___aodiv@divisor+7)^0,w,c
  2832   0022E0  B4D8               	btfsc	status,2,c
  2833   0022E2  EF75  F011         	goto	u4001
  2834   0022E6  EF77  F011         	goto	u4000
  2835   0022EA                     u4001:
  2836   0022EA  EFC9  F011         	goto	l3876
  2837   0022EE                     u4000:
  2838   0022EE  0E01               	movlw	1
  2839   0022F0  6E1C               	movwf	___aodiv@counter^0,c
  2840   0022F2  EF85  F011         	goto	l3862
  2841   0022F6                     l3860:
  2842   0022F6  90D8               	bcf	status,0,c
  2843   0022F8  3614               	rlcf	___aodiv@divisor^0,f,c
  2844   0022FA  3615               	rlcf	(___aodiv@divisor+1)^0,f,c
  2845   0022FC  3616               	rlcf	(___aodiv@divisor+2)^0,f,c
  2846   0022FE  3617               	rlcf	(___aodiv@divisor+3)^0,f,c
  2847   002300  3618               	rlcf	(___aodiv@divisor+4)^0,f,c
  2848   002302  3619               	rlcf	(___aodiv@divisor+5)^0,f,c
  2849   002304  361A               	rlcf	(___aodiv@divisor+6)^0,f,c
  2850   002306  361B               	rlcf	(___aodiv@divisor+7)^0,f,c
  2851   002308  2A1C               	incf	___aodiv@counter^0,f,c
  2852   00230A                     l3862:
  2853   00230A  AE1B               	btfss	(___aodiv@divisor+7)^0,7,c
  2854   00230C  EF8A  F011         	goto	u4011
  2855   002310  EF8C  F011         	goto	u4010
  2856   002314                     u4011:
  2857   002314  EF7B  F011         	goto	l3860
  2858   002318                     u4010:
  2859   002318                     l3864:
  2860   002318  90D8               	bcf	status,0,c
  2861   00231A  361E               	rlcf	___aodiv@quotient^0,f,c
  2862   00231C  361F               	rlcf	(___aodiv@quotient+1)^0,f,c
  2863   00231E  3620               	rlcf	(___aodiv@quotient+2)^0,f,c
  2864   002320  3621               	rlcf	(___aodiv@quotient+3)^0,f,c
  2865   002322  3622               	rlcf	(___aodiv@quotient+4)^0,f,c
  2866   002324  3623               	rlcf	(___aodiv@quotient+5)^0,f,c
  2867   002326  3624               	rlcf	(___aodiv@quotient+6)^0,f,c
  2868   002328  3625               	rlcf	(___aodiv@quotient+7)^0,f,c
  2869   00232A  5014               	movf	___aodiv@divisor^0,w,c
  2870   00232C  5C0C               	subwf	___aodiv@dividend^0,w,c
  2871   00232E  5015               	movf	(___aodiv@divisor+1)^0,w,c
  2872   002330  580D               	subwfb	(___aodiv@dividend+1)^0,w,c
  2873   002332  5016               	movf	(___aodiv@divisor+2)^0,w,c
  2874   002334  580E               	subwfb	(___aodiv@dividend+2)^0,w,c
  2875   002336  5017               	movf	(___aodiv@divisor+3)^0,w,c
  2876   002338  580F               	subwfb	(___aodiv@dividend+3)^0,w,c
  2877   00233A  5018               	movf	(___aodiv@divisor+4)^0,w,c
  2878   00233C  5810               	subwfb	(___aodiv@dividend+4)^0,w,c
  2879   00233E  5019               	movf	(___aodiv@divisor+5)^0,w,c
  2880   002340  5811               	subwfb	(___aodiv@dividend+5)^0,w,c
  2881   002342  501A               	movf	(___aodiv@divisor+6)^0,w,c
  2882   002344  5812               	subwfb	(___aodiv@dividend+6)^0,w,c
  2883   002346  501B               	movf	(___aodiv@divisor+7)^0,w,c
  2884   002348  5813               	subwfb	(___aodiv@dividend+7)^0,w,c
  2885   00234A  A0D8               	btfss	status,0,c
  2886   00234C  EFAA  F011         	goto	u4021
  2887   002350  EFAC  F011         	goto	u4020
  2888   002354                     u4021:
  2889   002354  EFBD  F011         	goto	l3872
  2890   002358                     u4020:
  2891   002358  5014               	movf	___aodiv@divisor^0,w,c
  2892   00235A  5E0C               	subwf	___aodiv@dividend^0,f,c
  2893   00235C  5015               	movf	(___aodiv@divisor+1)^0,w,c
  2894   00235E  5A0D               	subwfb	(___aodiv@dividend+1)^0,f,c
  2895   002360  5016               	movf	(___aodiv@divisor+2)^0,w,c
  2896   002362  5A0E               	subwfb	(___aodiv@dividend+2)^0,f,c
  2897   002364  5017               	movf	(___aodiv@divisor+3)^0,w,c
  2898   002366  5A0F               	subwfb	(___aodiv@dividend+3)^0,f,c
  2899   002368  5018               	movf	(___aodiv@divisor+4)^0,w,c
  2900   00236A  5A10               	subwfb	(___aodiv@dividend+4)^0,f,c
  2901   00236C  5019               	movf	(___aodiv@divisor+5)^0,w,c
  2902   00236E  5A11               	subwfb	(___aodiv@dividend+5)^0,f,c
  2903   002370  501A               	movf	(___aodiv@divisor+6)^0,w,c
  2904   002372  5A12               	subwfb	(___aodiv@dividend+6)^0,f,c
  2905   002374  501B               	movf	(___aodiv@divisor+7)^0,w,c
  2906   002376  5A13               	subwfb	(___aodiv@dividend+7)^0,f,c
  2907   002378  801E               	bsf	___aodiv@quotient^0,0,c
  2908   00237A                     l3872:
  2909   00237A  90D8               	bcf	status,0,c
  2910   00237C  321B               	rrcf	(___aodiv@divisor+7)^0,f,c
  2911   00237E  321A               	rrcf	(___aodiv@divisor+6)^0,f,c
  2912   002380  3219               	rrcf	(___aodiv@divisor+5)^0,f,c
  2913   002382  3218               	rrcf	(___aodiv@divisor+4)^0,f,c
  2914   002384  3217               	rrcf	(___aodiv@divisor+3)^0,f,c
  2915   002386  3216               	rrcf	(___aodiv@divisor+2)^0,f,c
  2916   002388  3215               	rrcf	(___aodiv@divisor+1)^0,f,c
  2917   00238A  3214               	rrcf	___aodiv@divisor^0,f,c
  2918   00238C  2E1C               	decfsz	___aodiv@counter^0,f,c
  2919   00238E  EF8C  F011         	goto	l3864
  2920   002392                     l3876:
  2921   002392  501D               	movf	___aodiv@sign^0,w,c
  2922   002394  B4D8               	btfsc	status,2,c
  2923   002396  EFCF  F011         	goto	u4031
  2924   00239A  EFD1  F011         	goto	u4030
  2925   00239E                     u4031:
  2926   00239E  EFE1  F011         	goto	l3880
  2927   0023A2                     u4030:
  2928   0023A2  1E25               	comf	(___aodiv@quotient+7)^0,f,c
  2929   0023A4  1E24               	comf	(___aodiv@quotient+6)^0,f,c
  2930   0023A6  1E23               	comf	(___aodiv@quotient+5)^0,f,c
  2931   0023A8  1E22               	comf	(___aodiv@quotient+4)^0,f,c
  2932   0023AA  1E21               	comf	(___aodiv@quotient+3)^0,f,c
  2933   0023AC  1E20               	comf	(___aodiv@quotient+2)^0,f,c
  2934   0023AE  1E1F               	comf	(___aodiv@quotient+1)^0,f,c
  2935   0023B0  6C1E               	negf	___aodiv@quotient^0,c
  2936   0023B2  0E00               	movlw	0
  2937   0023B4  221F               	addwfc	(___aodiv@quotient+1)^0,f,c
  2938   0023B6  2220               	addwfc	(___aodiv@quotient+2)^0,f,c
  2939   0023B8  2221               	addwfc	(___aodiv@quotient+3)^0,f,c
  2940   0023BA  2222               	addwfc	(___aodiv@quotient+4)^0,f,c
  2941   0023BC  2223               	addwfc	(___aodiv@quotient+5)^0,f,c
  2942   0023BE  2224               	addwfc	(___aodiv@quotient+6)^0,f,c
  2943   0023C0  2225               	addwfc	(___aodiv@quotient+7)^0,f,c
  2944   0023C2                     l3880:
  2945   0023C2  C01E  F00C         	movff	___aodiv@quotient,?___aodiv
  2946   0023C6  C01F  F00D         	movff	___aodiv@quotient+1,?___aodiv+1
  2947   0023CA  C020  F00E         	movff	___aodiv@quotient+2,?___aodiv+2
  2948   0023CE  C021  F00F         	movff	___aodiv@quotient+3,?___aodiv+3
  2949   0023D2  C022  F010         	movff	___aodiv@quotient+4,?___aodiv+4
  2950   0023D6  C023  F011         	movff	___aodiv@quotient+5,?___aodiv+5
  2951   0023DA  C024  F012         	movff	___aodiv@quotient+6,?___aodiv+6
  2952   0023DE  C025  F013         	movff	___aodiv@quotient+7,?___aodiv+7
  2953   0023E2  0012               	return		;funcret
  2954   0023E4                     __end_of___aodiv:
  2955                           	callstack 0
  2956                           
  2957 ;; *************** function _atoi *****************
  2958 ;; Defined at:
  2959 ;;		line 4 in file "D:\MPLAB_COMPILER\pic\sources\c99\common\atoi.c"
  2960 ;; Parameters:    Size  Location     Type
  2961 ;;  s               2   17[COMRAM] PTR const unsigned char 
  2962 ;;		 -> STR_1(39), 
  2963 ;; Auto vars:     Size  Location     Type
  2964 ;;  n               2   24[COMRAM] int 
  2965 ;;  neg             2   22[COMRAM] int 
  2966 ;; Return value:  Size  Location     Type
  2967 ;;                  2   17[COMRAM] int 
  2968 ;; Registers used:
  2969 ;;		wreg, status,2, status,0, tblptrl, tblptrh, tblptru, prodl, prodh, cstack
  2970 ;; Tracked objects:
  2971 ;;		On entry : 0/0
  2972 ;;		On exit  : 0/0
  2973 ;;		Unchanged: 0/0
  2974 ;; Data sizes:     COMRAM   BANK0   BANK1   BANK2   BANK3   BANK4   BANK5   BANK6   BANK7   BANK8   BANK9  BANK10  BANK1
      +1  BANK12  BANK13
  2975 ;;      Params:         2       0       0       0       0       0       0       0       0       0       0       0       
      +0       0       0
  2976 ;;      Locals:         4       0       0       0       0       0       0       0       0       0       0       0       
      +0       0       0
  2977 ;;      Temps:          3       0       0       0       0       0       0       0       0       0       0       0       
      +0       0       0
  2978 ;;      Totals:         9       0       0       0       0       0       0       0       0       0       0       0       
      +0       0       0
  2979 ;;Total ram usage:        9 bytes
  2980 ;; Hardware stack levels used: 1
  2981 ;; Hardware stack levels required when called: 8
  2982 ;; This function calls:
  2983 ;;		___wmul
  2984 ;;		_isdigit
  2985 ;;		_isspace
  2986 ;; This function is called by:
  2987 ;;		_vfpfcnvrt
  2988 ;; This function uses a non-reentrant model
  2989 ;;
  2990                           
  2991                           	psect	text12
  2992   002548                     __ptext12:
  2993                           	callstack 0
  2994   002548                     _atoi:
  2995                           	callstack 19
  2996   002548  0E00               	movlw	0
  2997   00254A  6E1A               	movwf	(atoi@n+1)^0,c
  2998   00254C  0E00               	movlw	0
  2999   00254E  6E19               	movwf	atoi@n^0,c
  3000   002550  0E00               	movlw	0
  3001   002552  6E18               	movwf	(atoi@neg+1)^0,c
  3002   002554  0E00               	movlw	0
  3003   002556  6E17               	movwf	atoi@neg^0,c
  3004   002558  EFB0  F012         	goto	l4026
  3005   00255C                     l4022:
  3006   00255C  4A12               	infsnz	atoi@s^0,f,c
  3007   00255E  2A13               	incf	(atoi@s+1)^0,f,c
  3008   002560                     l4026:
  3009   002560  C012  FFF6         	movff	atoi@s,tblptrl
  3010   002564  C013  FFF7         	movff	atoi@s+1,tblptrh
  3011   002568                     	if	0	;tblptru may be non-zero
  3012   002568                     	endif
  3013   002568                     	if	1	;Program memory is > 0xFFFF, there are 3 active tblptr bytes
  3014   002568  0E00               	movlw	low (__mediumconst shr (0+16))
  3015   00256A  6EF8               	movwf	tblptru,c
  3016   00256C                     	endif
  3017   00256C  0008               	tblrd		*
  3018   00256E  50F5               	movf	tablat,w,c
  3019   002570  0A20               	xorlw	32
  3020   002572  B4D8               	btfsc	status,2,c
  3021   002574  EFBE  F012         	goto	u4321
  3022   002578  EFC0  F012         	goto	u4320
  3023   00257C                     u4321:
  3024   00257C  EFAE  F012         	goto	l4022
  3025   002580                     u4320:
  3026   002580  C012  FFF6         	movff	atoi@s,tblptrl
  3027   002584  C013  FFF7         	movff	atoi@s+1,tblptrh
  3028   002588                     	if	0	;tblptru may be non-zero
  3029   002588                     	endif
  3030   002588                     	if	1	;Program memory is > 0xFFFF, there are 3 active tblptr bytes
  3031   002588  0E00               	movlw	low (__mediumconst shr (0+16))
  3032   00258A  6EF8               	movwf	tblptru,c
  3033   00258C                     	endif
  3034   00258C  0008               	tblrd		*
  3035   00258E  CFF5 F014          	movff	tablat,??_atoi
  3036   002592  0EF7               	movlw	247
  3037   002594  2414               	addwf	??_atoi^0,w,c
  3038   002596  6E15               	movwf	(??_atoi+1)^0,c
  3039   002598  6A16               	clrf	(??_atoi+2)^0,c
  3040   00259A  0EFF               	movlw	255
  3041   00259C  2216               	addwfc	(??_atoi+2)^0,f,c
  3042   00259E  5016               	movf	(??_atoi+2)^0,w,c
  3043   0025A0  E109               	bnz	u4330
  3044   0025A2  0E05               	movlw	5
  3045   0025A4  5C15               	subwf	(??_atoi+1)^0,w,c
  3046   0025A6  A0D8               	btfss	status,0,c
  3047   0025A8  EFD8  F012         	goto	u4331
  3048   0025AC  EFDA  F012         	goto	u4330
  3049   0025B0                     u4331:
  3050   0025B0  EFAE  F012         	goto	l4022
  3051   0025B4                     u4330:
  3052   0025B4  EFE4  F012         	goto	l4034
  3053   0025B8                     l4030:
  3054   0025B8  0E00               	movlw	0
  3055   0025BA  6E18               	movwf	(atoi@neg+1)^0,c
  3056   0025BC  0E01               	movlw	1
  3057   0025BE  6E17               	movwf	atoi@neg^0,c
  3058   0025C0                     l4032:
  3059   0025C0  4A12               	infsnz	atoi@s^0,f,c
  3060   0025C2  2A13               	incf	(atoi@s+1)^0,f,c
  3061   0025C4  EF1D  F013         	goto	l4042
  3062   0025C8                     l4034:
  3063   0025C8  C012  FFF6         	movff	atoi@s,tblptrl
  3064   0025CC  C013  FFF7         	movff	atoi@s+1,tblptrh
  3065   0025D0                     	if	0	;tblptru may be non-zero
  3066   0025D0                     	endif
  3067   0025D0                     	if	1	;Program memory is > 0xFFFF, there are 3 active tblptr bytes
  3068   0025D0  0E00               	movlw	low (__mediumconst shr (0+16))
  3069   0025D2  6EF8               	movwf	tblptru,c
  3070   0025D4                     	endif
  3071   0025D4  0008               	tblrd		*
  3072   0025D6  50F5               	movf	tablat,w,c
  3073   0025D8  6E14               	movwf	??_atoi^0,c
  3074   0025DA  6A15               	clrf	(??_atoi+1)^0,c
  3075                           
  3076                           ; Switch on 2 bytes has been partitioned into a top level switch of size 1, and 1 sub-sw
      +                          itches
  3077                           ; Switch size 1, requested type "simple"
  3078                           ; Number of cases is 1, Range of values is 0 to 0
  3079                           ; switch strategies available:
  3080                           ; Name         Instructions Cycles
  3081                           ; simple_byte            4     3 (average)
  3082                           ;	Chosen strategy is simple_byte
  3083   0025DC  5015               	movf	(??_atoi+1)^0,w,c
  3084   0025DE  0A00               	xorlw	0	; case 0
  3085   0025E0  B4D8               	btfsc	status,2,c
  3086   0025E2  EFF5  F012         	goto	l4960
  3087   0025E6  EF1D  F013         	goto	l4042
  3088   0025EA                     l4960:
  3089                           
  3090                           ; Switch size 1, requested type "simple"
  3091                           ; Number of cases is 2, Range of values is 43 to 45
  3092                           ; switch strategies available:
  3093                           ; Name         Instructions Cycles
  3094                           ; simple_byte            7     4 (average)
  3095                           ;	Chosen strategy is simple_byte
  3096   0025EA  5014               	movf	??_atoi^0,w,c
  3097   0025EC  0A2B               	xorlw	43	; case 43
  3098   0025EE  B4D8               	btfsc	status,2,c
  3099   0025F0  EFE0  F012         	goto	l4032
  3100   0025F4  0A06               	xorlw	6	; case 45
  3101   0025F6  B4D8               	btfsc	status,2,c
  3102   0025F8  EFDC  F012         	goto	l4030
  3103   0025FC  EF1D  F013         	goto	l4042
  3104   002600                     l4036:
  3105   002600  C019  F00C         	movff	atoi@n,___wmul@multiplier
  3106   002604  C01A  F00D         	movff	atoi@n+1,___wmul@multiplier+1
  3107   002608  0E00               	movlw	0
  3108   00260A  6E0F               	movwf	(___wmul@multiplicand+1)^0,c
  3109   00260C  0E0A               	movlw	10
  3110   00260E  6E0E               	movwf	___wmul@multiplicand^0,c
  3111   002610  EC3F  F018         	call	___wmul	;wreg free
  3112   002614  C012  FFF6         	movff	atoi@s,tblptrl
  3113   002618  C013  FFF7         	movff	atoi@s+1,tblptrh
  3114   00261C                     	if	0	;tblptru may be non-zero
  3115   00261C                     	endif
  3116   00261C                     	if	1	;Program memory is > 0xFFFF, there are 3 active tblptr bytes
  3117   00261C  0E00               	movlw	low (__mediumconst shr (0+16))
  3118   00261E  6EF8               	movwf	tblptru,c
  3119   002620                     	endif
  3120   002620  0008               	tblrd		*
  3121   002622  50F5               	movf	tablat,w,c
  3122   002624  5E0C               	subwf	?___wmul^0,f,c
  3123   002626  0E00               	movlw	0
  3124   002628  5A0D               	subwfb	(?___wmul+1)^0,f,c
  3125   00262A  0E30               	movlw	48
  3126   00262C  240C               	addwf	?___wmul^0,w,c
  3127   00262E  6E19               	movwf	atoi@n^0,c
  3128   002630  0E00               	movlw	0
  3129   002632  200D               	addwfc	(?___wmul+1)^0,w,c
  3130   002634  6E1A               	movwf	(atoi@n+1)^0,c
  3131   002636  EFE0  F012         	goto	l4032
  3132   00263A                     l4042:
  3133   00263A  C012  FFF6         	movff	atoi@s,tblptrl
  3134   00263E  C013  FFF7         	movff	atoi@s+1,tblptrh
  3135   002642                     	if	0	;tblptru may be non-zero
  3136   002642                     	endif
  3137   002642                     	if	1	;Program memory is > 0xFFFF, there are 3 active tblptr bytes
  3138   002642  0E00               	movlw	low (__mediumconst shr (0+16))
  3139   002644  6EF8               	movwf	tblptru,c
  3140   002646                     	endif
  3141   002646  0008               	tblrd		*
  3142   002648  CFF5 F014          	movff	tablat,??_atoi
  3143   00264C  0ED0               	movlw	208
  3144   00264E  2414               	addwf	??_atoi^0,w,c
  3145   002650  6E15               	movwf	(??_atoi+1)^0,c
  3146   002652  6A16               	clrf	(??_atoi+2)^0,c
  3147   002654  0EFF               	movlw	255
  3148   002656  2216               	addwfc	(??_atoi+2)^0,f,c
  3149   002658  5016               	movf	(??_atoi+2)^0,w,c
  3150   00265A  E109               	bnz	u4340
  3151   00265C  0E0A               	movlw	10
  3152   00265E  5C15               	subwf	(??_atoi+1)^0,w,c
  3153   002660  A0D8               	btfss	status,0,c
  3154   002662  EF35  F013         	goto	u4341
  3155   002666  EF37  F013         	goto	u4340
  3156   00266A                     u4341:
  3157   00266A  EF00  F013         	goto	l4036
  3158   00266E                     u4340:
  3159   00266E  5017               	movf	atoi@neg^0,w,c
  3160   002670  1018               	iorwf	(atoi@neg+1)^0,w,c
  3161   002672  A4D8               	btfss	status,2,c
  3162   002674  EF3E  F013         	goto	u4351
  3163   002678  EF40  F013         	goto	u4350
  3164   00267C                     u4351:
  3165   00267C  EF4E  F013         	goto	l1246
  3166   002680                     u4350:
  3167   002680  C019  F014         	movff	atoi@n,??_atoi
  3168   002684  C01A  F015         	movff	atoi@n+1,??_atoi+1
  3169   002688  1E14               	comf	??_atoi^0,f,c
  3170   00268A  1E15               	comf	(??_atoi+1)^0,f,c
  3171   00268C  4A14               	infsnz	??_atoi^0,f,c
  3172   00268E  2A15               	incf	(??_atoi+1)^0,f,c
  3173   002690  C014  F012         	movff	??_atoi,?_atoi
  3174   002694  C015  F013         	movff	??_atoi+1,?_atoi+1
  3175   002698  EF52  F013         	goto	l1249
  3176   00269C                     l1246:
  3177   00269C  C019  F012         	movff	atoi@n,?_atoi
  3178   0026A0  C01A  F013         	movff	atoi@n+1,?_atoi+1
  3179   0026A4                     l1249:
  3180   0026A4  0012               	return		;funcret
  3181   0026A6                     __end_of_atoi:
  3182                           	callstack 0
  3183                           
  3184 ;; *************** function _isspace *****************
  3185 ;; Defined at:
  3186 ;;		line 5 in file "D:\MPLAB_COMPILER\pic\sources\c99\common\isspace.c"
  3187 ;; Parameters:    Size  Location     Type
  3188 ;;  c               2   11[COMRAM] int 
  3189 ;; Auto vars:     Size  Location     Type
  3190 ;;		None
  3191 ;; Return value:  Size  Location     Type
  3192 ;;                  2   11[COMRAM] int 
  3193 ;; Registers used:
  3194 ;;		wreg, status,2, status,0
  3195 ;; Tracked objects:
  3196 ;;		On entry : 0/0
  3197 ;;		On exit  : 0/0
  3198 ;;		Unchanged: 0/0
  3199 ;; Data sizes:     COMRAM   BANK0   BANK1   BANK2   BANK3   BANK4   BANK5   BANK6   BANK7   BANK8   BANK9  BANK10  BANK1
      +1  BANK12  BANK13
  3200 ;;      Params:         2       0       0       0       0       0       0       0       0       0       0       0       
      +0       0       0
  3201 ;;      Locals:         1       0       0       0       0       0       0       0       0       0       0       0       
      +0       0       0
  3202 ;;      Temps:          2       0       0       0       0       0       0       0       0       0       0       0       
      +0       0       0
  3203 ;;      Totals:         5       0       0       0       0       0       0       0       0       0       0       0       
      +0       0       0
  3204 ;;Total ram usage:        5 bytes
  3205 ;; Hardware stack levels used: 1
  3206 ;; Hardware stack levels required when called: 7
  3207 ;; This function calls:
  3208 ;;		Nothing
  3209 ;; This function is called by:
  3210 ;;		_atoi
  3211 ;; This function uses a non-reentrant model
  3212 ;;
  3213                           
  3214                           	psect	text13
  3215   002DBC                     __ptext13:
  3216                           	callstack 0
  3217   002DBC                     _isspace:
  3218                           	callstack 19
  3219   002DBC  0E01               	movlw	1
  3220   002DBE  6E10               	movwf	_isspace$2445^0,c
  3221   002DC0  0E20               	movlw	32
  3222   002DC2  180C               	xorwf	isspace@c^0,w,c
  3223   002DC4  100D               	iorwf	(isspace@c+1)^0,w,c
  3224   002DC6  B4D8               	btfsc	status,2,c
  3225   002DC8  EFE8  F016         	goto	u4171
  3226   002DCC  EFEA  F016         	goto	u4170
  3227   002DD0                     u4171:
  3228   002DD0  EFFD  F016         	goto	l3954
  3229   002DD4                     u4170:
  3230   002DD4  0EF7               	movlw	247
  3231   002DD6  240C               	addwf	isspace@c^0,w,c
  3232   002DD8  6E0E               	movwf	??_isspace^0,c
  3233   002DDA  0EFF               	movlw	255
  3234   002DDC  200D               	addwfc	(isspace@c+1)^0,w,c
  3235   002DDE  6E0F               	movwf	(??_isspace+1)^0,c
  3236   002DE0  500F               	movf	(??_isspace+1)^0,w,c
  3237   002DE2  E109               	bnz	u4180
  3238   002DE4  0E05               	movlw	5
  3239   002DE6  5C0E               	subwf	??_isspace^0,w,c
  3240   002DE8  A0D8               	btfss	status,0,c
  3241   002DEA  EFF9  F016         	goto	u4181
  3242   002DEE  EFFB  F016         	goto	u4180
  3243   002DF2                     u4181:
  3244   002DF2  EFFD  F016         	goto	l3954
  3245   002DF6                     u4180:
  3246   002DF6  0E00               	movlw	0
  3247   002DF8  6E10               	movwf	_isspace$2445^0,c
  3248   002DFA                     l3954:
  3249   002DFA  C010  F00C         	movff	_isspace$2445,?_isspace
  3250   002DFE  6A0D               	clrf	(?_isspace+1)^0,c
  3251   002E00  0012               	return		;funcret
  3252   002E02                     __end_of_isspace:
  3253                           	callstack 0
  3254                           
  3255 ;; *************** function _isdigit *****************
  3256 ;; Defined at:
  3257 ;;		line 5 in file "D:\MPLAB_COMPILER\pic\sources\c99\common\isdigit.c"
  3258 ;; Parameters:    Size  Location     Type
  3259 ;;  c               2   11[COMRAM] int 
  3260 ;; Auto vars:     Size  Location     Type
  3261 ;;		None
  3262 ;; Return value:  Size  Location     Type
  3263 ;;                  2   11[COMRAM] int 
  3264 ;; Registers used:
  3265 ;;		wreg, status,2, status,0
  3266 ;; Tracked objects:
  3267 ;;		On entry : 0/0
  3268 ;;		On exit  : 0/0
  3269 ;;		Unchanged: 0/0
  3270 ;; Data sizes:     COMRAM   BANK0   BANK1   BANK2   BANK3   BANK4   BANK5   BANK6   BANK7   BANK8   BANK9  BANK10  BANK1
      +1  BANK12  BANK13
  3271 ;;      Params:         2       0       0       0       0       0       0       0       0       0       0       0       
      +0       0       0
  3272 ;;      Locals:         0       0       0       0       0       0       0       0       0       0       0       0       
      +0       0       0
  3273 ;;      Temps:          2       0       0       0       0       0       0       0       0       0       0       0       
      +0       0       0
  3274 ;;      Totals:         4       0       0       0       0       0       0       0       0       0       0       0       
      +0       0       0
  3275 ;;Total ram usage:        4 bytes
  3276 ;; Hardware stack levels used: 1
  3277 ;; Hardware stack levels required when called: 7
  3278 ;; This function calls:
  3279 ;;		Nothing
  3280 ;; This function is called by:
  3281 ;;		_vfpfcnvrt
  3282 ;;		_atoi
  3283 ;; This function uses a non-reentrant model
  3284 ;;
  3285                           
  3286                           	psect	text14
  3287   002F2C                     __ptext14:
  3288                           	callstack 0
  3289   002F2C                     _isdigit:
  3290                           	callstack 20
  3291   002F2C  0ED0               	movlw	208
  3292   002F2E  240C               	addwf	isdigit@c^0,w,c
  3293   002F30  6E0E               	movwf	??_isdigit^0,c
  3294   002F32  0EFF               	movlw	255
  3295   002F34  200D               	addwfc	(isdigit@c+1)^0,w,c
  3296   002F36  6E0F               	movwf	(??_isdigit+1)^0,c
  3297   002F38  500F               	movf	(??_isdigit+1)^0,w,c
  3298   002F3A  E10A               	bnz	u4150
  3299   002F3C  0E0A               	movlw	10
  3300   002F3E  5C0E               	subwf	??_isdigit^0,w,c
  3301   002F40  A0D8               	btfss	status,0,c
  3302   002F42  EFA5  F017         	goto	u4151
  3303   002F46  EFA8  F017         	goto	u4150
  3304   002F4A                     u4151:
  3305   002F4A  0E01               	movlw	1
  3306   002F4C  EFA9  F017         	goto	u4160
  3307   002F50                     u4150:
  3308   002F50  0E00               	movlw	0
  3309   002F52                     u4160:
  3310   002F52  6E0C               	movwf	?_isdigit^0,c
  3311   002F54  6A0D               	clrf	(?_isdigit+1)^0,c
  3312   002F56  0012               	return		;funcret
  3313   002F58                     __end_of_isdigit:
  3314                           	callstack 0
  3315                           
  3316 ;; *************** function ___wmul *****************
  3317 ;; Defined at:
  3318 ;;		line 15 in file "D:\MPLAB_COMPILER\pic\sources\c99\common\Umul16.c"
  3319 ;; Parameters:    Size  Location     Type
  3320 ;;  multiplier      2   11[COMRAM] unsigned int 
  3321 ;;  multiplicand    2   13[COMRAM] unsigned int 
  3322 ;; Auto vars:     Size  Location     Type
  3323 ;;  product         2   15[COMRAM] unsigned int 
  3324 ;; Return value:  Size  Location     Type
  3325 ;;                  2   11[COMRAM] unsigned int 
  3326 ;; Registers used:
  3327 ;;		wreg, status,2, status,0, prodl, prodh
  3328 ;; Tracked objects:
  3329 ;;		On entry : 0/0
  3330 ;;		On exit  : 0/0
  3331 ;;		Unchanged: 0/0
  3332 ;; Data sizes:     COMRAM   BANK0   BANK1   BANK2   BANK3   BANK4   BANK5   BANK6   BANK7   BANK8   BANK9  BANK10  BANK1
      +1  BANK12  BANK13
  3333 ;;      Params:         4       0       0       0       0       0       0       0       0       0       0       0       
      +0       0       0
  3334 ;;      Locals:         2       0       0       0       0       0       0       0       0       0       0       0       
      +0       0       0
  3335 ;;      Temps:          0       0       0       0       0       0       0       0       0       0       0       0       
      +0       0       0
  3336 ;;      Totals:         6       0       0       0       0       0       0       0       0       0       0       0       
      +0       0       0
  3337 ;;Total ram usage:        6 bytes
  3338 ;; Hardware stack levels used: 1
  3339 ;; Hardware stack levels required when called: 7
  3340 ;; This function calls:
  3341 ;;		Nothing
  3342 ;; This function is called by:
  3343 ;;		_atoi
  3344 ;;		_setMotorPWM
  3345 ;; This function uses a non-reentrant model
  3346 ;;
  3347                           
  3348                           	psect	text15
  3349   00307E                     __ptext15:
  3350                           	callstack 0
  3351   00307E                     ___wmul:
  3352                           	callstack 19
  3353   00307E  500C               	movf	___wmul@multiplier^0,w,c
  3354   003080  020E               	mulwf	___wmul@multiplicand^0,c
  3355   003082  CFF3 F010          	movff	prodl,___wmul@product
  3356   003086  CFF4 F011          	movff	prodh,___wmul@product+1
  3357   00308A  500C               	movf	___wmul@multiplier^0,w,c
  3358   00308C  020F               	mulwf	(___wmul@multiplicand+1)^0,c
  3359   00308E  50F3               	movf	243,w,c
  3360   003090  2611               	addwf	(___wmul@product+1)^0,f,c
  3361   003092  500D               	movf	(___wmul@multiplier+1)^0,w,c
  3362   003094  020E               	mulwf	___wmul@multiplicand^0,c
  3363   003096  50F3               	movf	243,w,c
  3364   003098  2611               	addwf	(___wmul@product+1)^0,f,c
  3365   00309A  C010  F00C         	movff	___wmul@product,?___wmul
  3366   00309E  C011  F00D         	movff	___wmul@product+1,?___wmul+1
  3367   0030A2  0012               	return		;funcret
  3368   0030A4                     __end_of___wmul:
  3369                           	callstack 0
  3370                           
  3371 ;; *************** function _sendTxBuf *****************
  3372 ;; Defined at:
  3373 ;;		line 97 in file "serial.c"
  3374 ;; Parameters:    Size  Location     Type
  3375 ;;		None
  3376 ;; Auto vars:     Size  Location     Type
  3377 ;;		None
  3378 ;; Return value:  Size  Location     Type
  3379 ;;                  1    wreg      void 
  3380 ;; Registers used:
  3381 ;;		wreg, status,2, status,0, cstack
  3382 ;; Tracked objects:
  3383 ;;		On entry : 0/0
  3384 ;;		On exit  : 0/0
  3385 ;;		Unchanged: 0/0
  3386 ;; Data sizes:     COMRAM   BANK0   BANK1   BANK2   BANK3   BANK4   BANK5   BANK6   BANK7   BANK8   BANK9  BANK10  BANK1
      +1  BANK12  BANK13
  3387 ;;      Params:         0       0       0       0       0       0       0       0       0       0       0       0       
      +0       0       0
  3388 ;;      Locals:         0       0       0       0       0       0       0       0       0       0       0       0       
      +0       0       0
  3389 ;;      Temps:          0       0       0       0       0       0       0       0       0       0       0       0       
      +0       0       0
  3390 ;;      Totals:         0       0       0       0       0       0       0       0       0       0       0       0       
      +0       0       0
  3391 ;;Total ram usage:        0 bytes
  3392 ;; Hardware stack levels used: 1
  3393 ;; Hardware stack levels required when called: 8
  3394 ;; This function calls:
  3395 ;;		_isDataInTxBuf
  3396 ;; This function is called by:
  3397 ;;		_main
  3398 ;; This function uses a non-reentrant model
  3399 ;;
  3400                           
  3401                           	psect	text16
  3402   003148                     __ptext16:
  3403                           	callstack 0
  3404   003148                     _sendTxBuf:
  3405                           	callstack 22
  3406   003148                     
  3407                           ;serial.c: 98:     if (isDataInTxBuf()) {PIE4bits.TX4IE=1;}
  3408   003148  ECCB  F018         	call	_isDataInTxBuf	;wreg free
  3409   00314C  0900               	iorlw	0
  3410   00314E  B4D8               	btfsc	status,2,c
  3411   003150  EFAC  F018         	goto	u5621
  3412   003154  EFAE  F018         	goto	u5620
  3413   003158                     u5621:
  3414   003158  EFB0  F018         	goto	l300
  3415   00315C                     u5620:
  3416   00315C  010E               	movlb	14	; () banked
  3417   00315E  852D               	bsf	45,2,b	;volatile
  3418   003160                     l300:
  3419   003160  0012               	return		;funcret
  3420   003162                     __end_of_sendTxBuf:
  3421                           	callstack 0
  3422                           
  3423 ;; *************** function _isDataInTxBuf *****************
  3424 ;; Defined at:
  3425 ;;		line 82 in file "serial.c"
  3426 ;; Parameters:    Size  Location     Type
  3427 ;;		None
  3428 ;; Auto vars:     Size  Location     Type
  3429 ;;		None
  3430 ;; Return value:  Size  Location     Type
  3431 ;;                  1    wreg      unsigned char 
  3432 ;; Registers used:
  3433 ;;		wreg, status,2, status,0
  3434 ;; Tracked objects:
  3435 ;;		On entry : 0/0
  3436 ;;		On exit  : 0/0
  3437 ;;		Unchanged: 0/0
  3438 ;; Data sizes:     COMRAM   BANK0   BANK1   BANK2   BANK3   BANK4   BANK5   BANK6   BANK7   BANK8   BANK9  BANK10  BANK1
      +1  BANK12  BANK13
  3439 ;;      Params:         0       0       0       0       0       0       0       0       0       0       0       0       
      +0       0       0
  3440 ;;      Locals:         0       0       0       0       0       0       0       0       0       0       0       0       
      +0       0       0
  3441 ;;      Temps:          0       0       0       0       0       0       0       0       0       0       0       0       
      +0       0       0
  3442 ;;      Totals:         0       0       0       0       0       0       0       0       0       0       0       0       
      +0       0       0
  3443 ;;Total ram usage:        0 bytes
  3444 ;; Hardware stack levels used: 1
  3445 ;; Hardware stack levels required when called: 7
  3446 ;; This function calls:
  3447 ;;		Nothing
  3448 ;; This function is called by:
  3449 ;;		_sendTxBuf
  3450 ;; This function uses a non-reentrant model
  3451 ;;
  3452                           
  3453                           	psect	text17
  3454   003196                     __ptext17:
  3455                           	callstack 0
  3456   003196                     _isDataInTxBuf:
  3457                           	callstack 22
  3458   003196                     
  3459                           ;serial.c: 83:     return (TxBufWriteCnt!=TxBufReadCnt);
  3460   003196  504E               	movf	_TxBufReadCnt^0,w,c	;volatile
  3461   003198  184F               	xorwf	_TxBufWriteCnt^0,w,c	;volatile
  3462   00319A  A4D8               	btfss	status,2,c
  3463   00319C  EFD2  F018         	goto	u4461
  3464   0031A0  EFD5  F018         	goto	u4460
  3465   0031A4                     u4461:
  3466   0031A4  0E01               	movlw	1
  3467   0031A6  EFD6  F018         	goto	u4470
  3468   0031AA                     u4460:
  3469   0031AA  0E00               	movlw	0
  3470   0031AC                     u4470:
  3471   0031AC  0012               	return		;funcret
  3472   0031AE                     __end_of_isDataInTxBuf:
  3473                           	callstack 0
  3474                           
  3475 ;; *************** function _isDataInRxBuf *****************
  3476 ;; Defined at:
  3477 ;;		line 62 in file "serial.c"
  3478 ;; Parameters:    Size  Location     Type
  3479 ;;		None
  3480 ;; Auto vars:     Size  Location     Type
  3481 ;;		None
  3482 ;; Return value:  Size  Location     Type
  3483 ;;                  1    wreg      unsigned char 
  3484 ;; Registers used:
  3485 ;;		wreg, status,2, status,0
  3486 ;; Tracked objects:
  3487 ;;		On entry : 0/0
  3488 ;;		On exit  : 0/0
  3489 ;;		Unchanged: 0/0
  3490 ;; Data sizes:     COMRAM   BANK0   BANK1   BANK2   BANK3   BANK4   BANK5   BANK6   BANK7   BANK8   BANK9  BANK10  BANK1
      +1  BANK12  BANK13
  3491 ;;      Params:         0       0       0       0       0       0       0       0       0       0       0       0       
      +0       0       0
  3492 ;;      Locals:         0       0       0       0       0       0       0       0       0       0       0       0       
      +0       0       0
  3493 ;;      Temps:          0       0       0       0       0       0       0       0       0       0       0       0       
      +0       0       0
  3494 ;;      Totals:         0       0       0       0       0       0       0       0       0       0       0       0       
      +0       0       0
  3495 ;;Total ram usage:        0 bytes
  3496 ;; Hardware stack levels used: 1
  3497 ;; Hardware stack levels required when called: 7
  3498 ;; This function calls:
  3499 ;;		Nothing
  3500 ;; This function is called by:
  3501 ;;		_main
  3502 ;; This function uses a non-reentrant model
  3503 ;;
  3504                           
  3505                           	psect	text18
  3506   0031AE                     __ptext18:
  3507                           	callstack 0
  3508   0031AE                     _isDataInRxBuf:
  3509                           	callstack 23
  3510   0031AE                     
  3511                           ;serial.c: 63:     return (RxBufWriteCnt!=RxBufReadCnt);
  3512   0031AE  5050               	movf	_RxBufReadCnt^0,w,c	;volatile
  3513   0031B0  1851               	xorwf	_RxBufWriteCnt^0,w,c	;volatile
  3514   0031B2  A4D8               	btfss	status,2,c
  3515   0031B4  EFDE  F018         	goto	u5591
  3516   0031B8  EFE1  F018         	goto	u5590
  3517   0031BC                     u5591:
  3518   0031BC  0E01               	movlw	1
  3519   0031BE  EFE2  F018         	goto	u5600
  3520   0031C2                     u5590:
  3521   0031C2  0E00               	movlw	0
  3522   0031C4                     u5600:
  3523   0031C4  0012               	return		;funcret
  3524   0031C6                     __end_of_isDataInRxBuf:
  3525                           	callstack 0
  3526                           
  3527 ;; *************** function _initUSART4 *****************
  3528 ;; Defined at:
  3529 ;;		line 5 in file "serial.c"
  3530 ;; Parameters:    Size  Location     Type
  3531 ;;		None
  3532 ;; Auto vars:     Size  Location     Type
  3533 ;;		None
  3534 ;; Return value:  Size  Location     Type
  3535 ;;                  1    wreg      void 
  3536 ;; Registers used:
  3537 ;;		wreg, status,2
  3538 ;; Tracked objects:
  3539 ;;		On entry : 0/0
  3540 ;;		On exit  : 0/0
  3541 ;;		Unchanged: 0/0
  3542 ;; Data sizes:     COMRAM   BANK0   BANK1   BANK2   BANK3   BANK4   BANK5   BANK6   BANK7   BANK8   BANK9  BANK10  BANK1
      +1  BANK12  BANK13
  3543 ;;      Params:         0       0       0       0       0       0       0       0       0       0       0       0       
      +0       0       0
  3544 ;;      Locals:         0       0       0       0       0       0       0       0       0       0       0       0       
      +0       0       0
  3545 ;;      Temps:          0       0       0       0       0       0       0       0       0       0       0       0       
      +0       0       0
  3546 ;;      Totals:         0       0       0       0       0       0       0       0       0       0       0       0       
      +0       0       0
  3547 ;;Total ram usage:        0 bytes
  3548 ;; Hardware stack levels used: 1
  3549 ;; Hardware stack levels required when called: 7
  3550 ;; This function calls:
  3551 ;;		Nothing
  3552 ;; This function is called by:
  3553 ;;		_main
  3554 ;; This function uses a non-reentrant model
  3555 ;;
  3556                           
  3557                           	psect	text19
  3558   00312A                     __ptext19:
  3559                           	callstack 0
  3560   00312A                     _initUSART4:
  3561                           	callstack 23
  3562   00312A                     
  3563                           ;serial.c: 8:     RC0PPS = 0x12;
  3564   00312A  0E12               	movlw	18
  3565   00312C  010E               	movlb	14	; () banked
  3566   00312E  6F62               	movwf	98,b	;volatile
  3567                           
  3568                           ;serial.c: 9:     RX4PPS = 0x11;
  3569   003130  0E11               	movlw	17
  3570   003132  6F15               	movwf	21,b	;volatile
  3571   003134                     
  3572                           ; BSR set to: 14
  3573                           ;serial.c: 11:     BAUD4CONbits.BRG16 = 0;
  3574   003134  97E9               	bcf	233,3,b	;volatile
  3575   003136                     
  3576                           ; BSR set to: 14
  3577                           ;serial.c: 12:     TX4STAbits.BRGH = 0;
  3578   003136  95E8               	bcf	232,2,b	;volatile
  3579                           
  3580                           ;serial.c: 13:     SP4BRGL = 51;
  3581   003138  0E33               	movlw	51
  3582   00313A  6FE5               	movwf	229,b	;volatile
  3583                           
  3584                           ;serial.c: 14:     SP4BRGH = 0;
  3585   00313C  0E00               	movlw	0
  3586   00313E  6FE6               	movwf	230,b	;volatile
  3587   003140                     
  3588                           ; BSR set to: 14
  3589                           ;serial.c: 16:     RC4STAbits.CREN = 1;
  3590   003140  89E7               	bsf	231,4,b	;volatile
  3591   003142                     
  3592                           ; BSR set to: 14
  3593                           ;serial.c: 17:     TX4STAbits.TXEN = 1;
  3594   003142  8BE8               	bsf	232,5,b	;volatile
  3595   003144                     
  3596                           ; BSR set to: 14
  3597                           ;serial.c: 18:     RC4STAbits.SPEN = 1;
  3598   003144  8FE7               	bsf	231,7,b	;volatile
  3599   003146                     
  3600                           ; BSR set to: 14
  3601   003146  0012               	return		;funcret
  3602   003148                     __end_of_initUSART4:
  3603                           	callstack 0
  3604                           
  3605 ;; *************** function _getCharFromRxBuf *****************
  3606 ;; Defined at:
  3607 ;;		line 48 in file "serial.c"
  3608 ;; Parameters:    Size  Location     Type
  3609 ;;		None
  3610 ;; Auto vars:     Size  Location     Type
  3611 ;;		None
  3612 ;; Return value:  Size  Location     Type
  3613 ;;                  1    wreg      unsigned char 
  3614 ;; Registers used:
  3615 ;;		wreg, fsr2l, fsr2h, status,2, status,0
  3616 ;; Tracked objects:
  3617 ;;		On entry : 0/0
  3618 ;;		On exit  : 0/0
  3619 ;;		Unchanged: 0/0
  3620 ;; Data sizes:     COMRAM   BANK0   BANK1   BANK2   BANK3   BANK4   BANK5   BANK6   BANK7   BANK8   BANK9  BANK10  BANK1
      +1  BANK12  BANK13
  3621 ;;      Params:         0       0       0       0       0       0       0       0       0       0       0       0       
      +0       0       0
  3622 ;;      Locals:         0       0       0       0       0       0       0       0       0       0       0       0       
      +0       0       0
  3623 ;;      Temps:          2       0       0       0       0       0       0       0       0       0       0       0       
      +0       0       0
  3624 ;;      Totals:         2       0       0       0       0       0       0       0       0       0       0       0       
      +0       0       0
  3625 ;;Total ram usage:        2 bytes
  3626 ;; Hardware stack levels used: 1
  3627 ;; Hardware stack levels required when called: 7
  3628 ;; This function calls:
  3629 ;;		Nothing
  3630 ;; This function is called by:
  3631 ;;		_main
  3632 ;; This function uses a non-reentrant model
  3633 ;;
  3634                           
  3635                           	psect	text20
  3636   002F58                     __ptext20:
  3637                           	callstack 0
  3638   002F58                     _getCharFromRxBuf:
  3639                           	callstack 23
  3640   002F58                     
  3641                           ;serial.c: 49:     if (RxBufReadCnt>=20) {RxBufReadCnt=0;}
  3642   002F58  0E13               	movlw	19
  3643   002F5A  6450               	cpfsgt	_RxBufReadCnt^0,c	;volatile
  3644   002F5C  EFB2  F017         	goto	u5581
  3645   002F60  EFB4  F017         	goto	u5580
  3646   002F64                     u5581:
  3647   002F64  EFB6  F017         	goto	l4742
  3648   002F68                     u5580:
  3649   002F68  0E00               	movlw	0
  3650   002F6A  6E50               	movwf	_RxBufReadCnt^0,c	;volatile
  3651   002F6C                     l4742:
  3652                           
  3653                           ;serial.c: 50:     return EUSART4RXbuf[RxBufReadCnt++];
  3654   002F6C  2A50               	incf	_RxBufReadCnt^0,f,c	;volatile
  3655   002F6E  0450               	decf	_RxBufReadCnt^0,w,c	;volatile
  3656   002F70  6E0C               	movwf	??_getCharFromRxBuf^0,c
  3657   002F72  6A0D               	clrf	(??_getCharFromRxBuf+1)^0,c
  3658   002F74  0E9E               	movlw	low _EUSART4RXbuf
  3659   002F76  240C               	addwf	??_getCharFromRxBuf^0,w,c
  3660   002F78  6ED9               	movwf	fsr2l,c
  3661   002F7A  0E00               	movlw	high _EUSART4RXbuf
  3662   002F7C  200D               	addwfc	(??_getCharFromRxBuf+1)^0,w,c
  3663   002F7E  6EDA               	movwf	fsr2h,c
  3664   002F80  50DF               	movf	indf2,w,c
  3665   002F82  0012               	return		;funcret
  3666   002F84                     __end_of_getCharFromRxBuf:
  3667                           	callstack 0
  3668                           
  3669 ;; *************** function _detect_color *****************
  3670 ;; Defined at:
  3671 ;;		line 99 in file "color.c"
  3672 ;; Parameters:    Size  Location     Type
  3673 ;;  tempval         8   13[BANK0 ] struct RGB_val
  3674 ;; Auto vars:     Size  Location     Type
  3675 ;;  dist_B          1   26[BANK0 ] unsigned char 
  3676 ;;  dist_G          1   25[BANK0 ] unsigned char 
  3677 ;;  dist_R          1   24[BANK0 ] unsigned char 
  3678 ;;  color           1   23[BANK0 ] unsigned char 
  3679 ;; Return value:  Size  Location     Type
  3680 ;;                  1    wreg      unsigned char 
  3681 ;; Registers used:
  3682 ;;		wreg, status,2, status,0, prodl, prodh, cstack
  3683 ;; Tracked objects:
  3684 ;;		On entry : 0/0
  3685 ;;		On exit  : 0/0
  3686 ;;		Unchanged: 0/0
  3687 ;; Data sizes:     COMRAM   BANK0   BANK1   BANK2   BANK3   BANK4   BANK5   BANK6   BANK7   BANK8   BANK9  BANK10  BANK1
      +1  BANK12  BANK13
  3688 ;;      Params:         0       8       0       0       0       0       0       0       0       0       0       0       
      +0       0       0
  3689 ;;      Locals:         0       4       0       0       0       0       0       0       0       0       0       0       
      +0       0       0
  3690 ;;      Temps:          0       2       0       0       0       0       0       0       0       0       0       0       
      +0       0       0
  3691 ;;      Totals:         0      14       0       0       0       0       0       0       0       0       0       0       
      +0       0       0
  3692 ;;Total ram usage:       14 bytes
  3693 ;; Hardware stack levels used: 1
  3694 ;; Hardware stack levels required when called: 8
  3695 ;; This function calls:
  3696 ;;		___fldiv
  3697 ;;		___flmul
  3698 ;;		___fltol
  3699 ;;		___xxtofl
  3700 ;; This function is called by:
  3701 ;;		_main
  3702 ;; This function uses a non-reentrant model
  3703 ;;
  3704                           
  3705                           	psect	text21
  3706   000E2A                     __ptext21:
  3707                           	callstack 0
  3708   000E2A                     _detect_color:
  3709                           	callstack 22
  3710   000E2A                     
  3711                           ;color.c: 99: unsigned char detect_color(RGB_val tempval);color.c: 100: {;color.c: 101: 
      +                              unsigned char color = 0;
  3712   000E2A  0E00               	movlw	0
  3713   000E2C  0100               	movlb	0	; () banked
  3714   000E2E  6F77               	movwf	detect_color@color& (0+255),b
  3715   000E30                     
  3716                           ; BSR set to: 0
  3717                           ;color.c: 104:     unsigned char dist_R, dist_G, dist_B;;color.c: 105:     dist_R = ((fl
      +                          oat)(tempval.R)/(float)(tempval.R + tempval.G + tempval.B))*100;
  3718   000E30  0E00               	movlw	0
  3719   000E32  6E37               	movwf	___flmul@a^0,c
  3720   000E34  0E00               	movlw	0
  3721   000E36  6E38               	movwf	(___flmul@a+1)^0,c
  3722   000E38  0EC8               	movlw	200
  3723   000E3A  6E39               	movwf	(___flmul@a+2)^0,c
  3724   000E3C  0E42               	movlw	66
  3725   000E3E  6E3A               	movwf	(___flmul@a+3)^0,c
  3726   000E40  5171               	movf	(detect_color@tempval+4)& (0+255),w,b
  3727   000E42  256F               	addwf	(detect_color@tempval+2)& (0+255),w,b
  3728   000E44  6F75               	movwf	??_detect_color& (0+255),b
  3729   000E46  5172               	movf	(detect_color@tempval+5)& (0+255),w,b
  3730   000E48  2170               	addwfc	(detect_color@tempval+3)& (0+255),w,b
  3731   000E4A  6F76               	movwf	(??_detect_color+1)& (0+255),b
  3732   000E4C  516D               	movf	detect_color@tempval& (0+255),w,b
  3733   000E4E  2775               	addwf	??_detect_color& (0+255),f,b
  3734   000E50  516E               	movf	(detect_color@tempval+1)& (0+255),w,b
  3735   000E52  2376               	addwfc	(??_detect_color+1)& (0+255),f,b
  3736   000E54  C075  F00C         	movff	??_detect_color,___xxtofl@val
  3737   000E58  C076  F00D         	movff	??_detect_color+1,___xxtofl@val+1
  3738   000E5C  6A0E               	clrf	(___xxtofl@val+2)^0,c
  3739   000E5E  6A0F               	clrf	(___xxtofl@val+3)^0,c
  3740   000E60  0E00               	movlw	0
  3741   000E62  EC54  F010         	call	___xxtofl
  3742   000E66  C00C  F01E         	movff	?___xxtofl,___fldiv@a
  3743   000E6A  C00D  F01F         	movff	?___xxtofl+1,___fldiv@a+1
  3744   000E6E  C00E  F020         	movff	?___xxtofl+2,___fldiv@a+2
  3745   000E72  C00F  F021         	movff	?___xxtofl+3,___fldiv@a+3
  3746   000E76  C06D  F00C         	movff	detect_color@tempval,___xxtofl@val
  3747   000E7A  C06E  F00D         	movff	detect_color@tempval+1,___xxtofl@val+1
  3748   000E7E  6A0E               	clrf	(___xxtofl@val+2)^0,c
  3749   000E80  6A0F               	clrf	(___xxtofl@val+3)^0,c
  3750   000E82  0E00               	movlw	0
  3751   000E84  EC54  F010         	call	___xxtofl
  3752   000E88  C00C  F01A         	movff	?___xxtofl,___fldiv@b
  3753   000E8C  C00D  F01B         	movff	?___xxtofl+1,___fldiv@b+1
  3754   000E90  C00E  F01C         	movff	?___xxtofl+2,___fldiv@b+2
  3755   000E94  C00F  F01D         	movff	?___xxtofl+3,___fldiv@b+3
  3756   000E98  ECCE  F00B         	call	___fldiv	;wreg free
  3757   000E9C  C01A  F033         	movff	?___fldiv,___flmul@b
  3758   000EA0  C01B  F034         	movff	?___fldiv+1,___flmul@b+1
  3759   000EA4  C01C  F035         	movff	?___fldiv+2,___flmul@b+2
  3760   000EA8  C01D  F036         	movff	?___fldiv+3,___flmul@b+3
  3761   000EAC  ECB8  F009         	call	___flmul	;wreg free
  3762   000EB0  C033  F03F         	movff	?___flmul,___fltol@f1
  3763   000EB4  C034  F040         	movff	?___flmul+1,___fltol@f1+1
  3764   000EB8  C035  F041         	movff	?___flmul+2,___fltol@f1+2
  3765   000EBC  C036  F042         	movff	?___flmul+3,___fltol@f1+3
  3766   000EC0  EC53  F013         	call	___fltol	;wreg free
  3767   000EC4  503F               	movf	?___fltol^0,w,c
  3768   000EC6  0100               	movlb	0	; () banked
  3769   000EC8  6F78               	movwf	detect_color@dist_R& (0+255),b
  3770   000ECA                     
  3771                           ; BSR set to: 0
  3772                           ;color.c: 106:     dist_G = ((float)(tempval.G)/(float)(tempval.R + tempval.G + tempval.
      +                          B))*100;
  3773   000ECA  0E00               	movlw	0
  3774   000ECC  6E37               	movwf	___flmul@a^0,c
  3775   000ECE  0E00               	movlw	0
  3776   000ED0  6E38               	movwf	(___flmul@a+1)^0,c
  3777   000ED2  0EC8               	movlw	200
  3778   000ED4  6E39               	movwf	(___flmul@a+2)^0,c
  3779   000ED6  0E42               	movlw	66
  3780   000ED8  6E3A               	movwf	(___flmul@a+3)^0,c
  3781   000EDA  5171               	movf	(detect_color@tempval+4)& (0+255),w,b
  3782   000EDC  256F               	addwf	(detect_color@tempval+2)& (0+255),w,b
  3783   000EDE  6F75               	movwf	??_detect_color& (0+255),b
  3784   000EE0  5172               	movf	(detect_color@tempval+5)& (0+255),w,b
  3785   000EE2  2170               	addwfc	(detect_color@tempval+3)& (0+255),w,b
  3786   000EE4  6F76               	movwf	(??_detect_color+1)& (0+255),b
  3787   000EE6  516D               	movf	detect_color@tempval& (0+255),w,b
  3788   000EE8  2775               	addwf	??_detect_color& (0+255),f,b
  3789   000EEA  516E               	movf	(detect_color@tempval+1)& (0+255),w,b
  3790   000EEC  2376               	addwfc	(??_detect_color+1)& (0+255),f,b
  3791   000EEE  C075  F00C         	movff	??_detect_color,___xxtofl@val
  3792   000EF2  C076  F00D         	movff	??_detect_color+1,___xxtofl@val+1
  3793   000EF6  6A0E               	clrf	(___xxtofl@val+2)^0,c
  3794   000EF8  6A0F               	clrf	(___xxtofl@val+3)^0,c
  3795   000EFA  0E00               	movlw	0
  3796   000EFC  EC54  F010         	call	___xxtofl
  3797   000F00  C00C  F01E         	movff	?___xxtofl,___fldiv@a
  3798   000F04  C00D  F01F         	movff	?___xxtofl+1,___fldiv@a+1
  3799   000F08  C00E  F020         	movff	?___xxtofl+2,___fldiv@a+2
  3800   000F0C  C00F  F021         	movff	?___xxtofl+3,___fldiv@a+3
  3801   000F10  C06F  F00C         	movff	detect_color@tempval+2,___xxtofl@val
  3802   000F14  C070  F00D         	movff	detect_color@tempval+3,___xxtofl@val+1
  3803   000F18  6A0E               	clrf	(___xxtofl@val+2)^0,c
  3804   000F1A  6A0F               	clrf	(___xxtofl@val+3)^0,c
  3805   000F1C  0E00               	movlw	0
  3806   000F1E  EC54  F010         	call	___xxtofl
  3807   000F22  C00C  F01A         	movff	?___xxtofl,___fldiv@b
  3808   000F26  C00D  F01B         	movff	?___xxtofl+1,___fldiv@b+1
  3809   000F2A  C00E  F01C         	movff	?___xxtofl+2,___fldiv@b+2
  3810   000F2E  C00F  F01D         	movff	?___xxtofl+3,___fldiv@b+3
  3811   000F32  ECCE  F00B         	call	___fldiv	;wreg free
  3812   000F36  C01A  F033         	movff	?___fldiv,___flmul@b
  3813   000F3A  C01B  F034         	movff	?___fldiv+1,___flmul@b+1
  3814   000F3E  C01C  F035         	movff	?___fldiv+2,___flmul@b+2
  3815   000F42  C01D  F036         	movff	?___fldiv+3,___flmul@b+3
  3816   000F46  ECB8  F009         	call	___flmul	;wreg free
  3817   000F4A  C033  F03F         	movff	?___flmul,___fltol@f1
  3818   000F4E  C034  F040         	movff	?___flmul+1,___fltol@f1+1
  3819   000F52  C035  F041         	movff	?___flmul+2,___fltol@f1+2
  3820   000F56  C036  F042         	movff	?___flmul+3,___fltol@f1+3
  3821   000F5A  EC53  F013         	call	___fltol	;wreg free
  3822   000F5E  503F               	movf	?___fltol^0,w,c
  3823   000F60  0100               	movlb	0	; () banked
  3824   000F62  6F79               	movwf	detect_color@dist_G& (0+255),b
  3825   000F64                     
  3826                           ; BSR set to: 0
  3827                           ;color.c: 107:     dist_B = ((float)(tempval.B)/(float)(tempval.R + tempval.G + tempval.
      +                          B))*100;
  3828   000F64  0E00               	movlw	0
  3829   000F66  6E37               	movwf	___flmul@a^0,c
  3830   000F68  0E00               	movlw	0
  3831   000F6A  6E38               	movwf	(___flmul@a+1)^0,c
  3832   000F6C  0EC8               	movlw	200
  3833   000F6E  6E39               	movwf	(___flmul@a+2)^0,c
  3834   000F70  0E42               	movlw	66
  3835   000F72  6E3A               	movwf	(___flmul@a+3)^0,c
  3836   000F74  5171               	movf	(detect_color@tempval+4)& (0+255),w,b
  3837   000F76  256F               	addwf	(detect_color@tempval+2)& (0+255),w,b
  3838   000F78  6F75               	movwf	??_detect_color& (0+255),b
  3839   000F7A  5172               	movf	(detect_color@tempval+5)& (0+255),w,b
  3840   000F7C  2170               	addwfc	(detect_color@tempval+3)& (0+255),w,b
  3841   000F7E  6F76               	movwf	(??_detect_color+1)& (0+255),b
  3842   000F80  516D               	movf	detect_color@tempval& (0+255),w,b
  3843   000F82  2775               	addwf	??_detect_color& (0+255),f,b
  3844   000F84  516E               	movf	(detect_color@tempval+1)& (0+255),w,b
  3845   000F86  2376               	addwfc	(??_detect_color+1)& (0+255),f,b
  3846   000F88  C075  F00C         	movff	??_detect_color,___xxtofl@val
  3847   000F8C  C076  F00D         	movff	??_detect_color+1,___xxtofl@val+1
  3848   000F90  6A0E               	clrf	(___xxtofl@val+2)^0,c
  3849   000F92  6A0F               	clrf	(___xxtofl@val+3)^0,c
  3850   000F94  0E00               	movlw	0
  3851   000F96  EC54  F010         	call	___xxtofl
  3852   000F9A  C00C  F01E         	movff	?___xxtofl,___fldiv@a
  3853   000F9E  C00D  F01F         	movff	?___xxtofl+1,___fldiv@a+1
  3854   000FA2  C00E  F020         	movff	?___xxtofl+2,___fldiv@a+2
  3855   000FA6  C00F  F021         	movff	?___xxtofl+3,___fldiv@a+3
  3856   000FAA  C071  F00C         	movff	detect_color@tempval+4,___xxtofl@val
  3857   000FAE  C072  F00D         	movff	detect_color@tempval+5,___xxtofl@val+1
  3858   000FB2  6A0E               	clrf	(___xxtofl@val+2)^0,c
  3859   000FB4  6A0F               	clrf	(___xxtofl@val+3)^0,c
  3860   000FB6  0E00               	movlw	0
  3861   000FB8  EC54  F010         	call	___xxtofl
  3862   000FBC  C00C  F01A         	movff	?___xxtofl,___fldiv@b
  3863   000FC0  C00D  F01B         	movff	?___xxtofl+1,___fldiv@b+1
  3864   000FC4  C00E  F01C         	movff	?___xxtofl+2,___fldiv@b+2
  3865   000FC8  C00F  F01D         	movff	?___xxtofl+3,___fldiv@b+3
  3866   000FCC  ECCE  F00B         	call	___fldiv	;wreg free
  3867   000FD0  C01A  F033         	movff	?___fldiv,___flmul@b
  3868   000FD4  C01B  F034         	movff	?___fldiv+1,___flmul@b+1
  3869   000FD8  C01C  F035         	movff	?___fldiv+2,___flmul@b+2
  3870   000FDC  C01D  F036         	movff	?___fldiv+3,___flmul@b+3
  3871   000FE0  ECB8  F009         	call	___flmul	;wreg free
  3872   000FE4  C033  F03F         	movff	?___flmul,___fltol@f1
  3873   000FE8  C034  F040         	movff	?___flmul+1,___fltol@f1+1
  3874   000FEC  C035  F041         	movff	?___flmul+2,___fltol@f1+2
  3875   000FF0  C036  F042         	movff	?___flmul+3,___fltol@f1+3
  3876   000FF4  EC53  F013         	call	___fltol	;wreg free
  3877   000FF8  503F               	movf	?___fltol^0,w,c
  3878   000FFA  0100               	movlb	0	; () banked
  3879   000FFC  6F7A               	movwf	detect_color@dist_B& (0+255),b
  3880   000FFE                     
  3881                           ; BSR set to: 0
  3882                           ;color.c: 109:     if(color_flag){
  3883   000FFE  51B5               	movf	_color_flag& (0+255),w,b
  3884   001000  B4D8               	btfsc	status,2,c
  3885   001002  EF05  F008         	goto	u5081
  3886   001006  EF07  F008         	goto	u5080
  3887   00100A                     u5081:
  3888   00100A  EFB7  F009         	goto	l58
  3889   00100E                     u5080:
  3890   00100E                     
  3891                           ; BSR set to: 0
  3892                           ;color.c: 110:         _delay((unsigned long)((500)*(64000000/4000.0)));
  3893   00100E  0E29               	movlw	41
  3894   001010  0100               	movlb	0	; () banked
  3895   001012  6F76               	movwf	(??_detect_color+1)& (0+255),b
  3896   001014  0E96               	movlw	150
  3897   001016  6F75               	movwf	??_detect_color& (0+255),b
  3898   001018  0E7F               	movlw	127
  3899   00101A                     u5737:
  3900   00101A  2EE8               	decfsz	wreg,f,c
  3901   00101C  D7FE               	bra	u5737
  3902   00101E  2F75               	decfsz	??_detect_color& (0+255),f,b
  3903   001020  D7FC               	bra	u5737
  3904   001022  2F76               	decfsz	(??_detect_color+1)& (0+255),f,b
  3905   001024  D7FA               	bra	u5737
  3906   001026                     
  3907                           ;color.c: 111:         if((72<=dist_R) && (dist_R<=78) && (8<=dist_G) && (dist_G<=14) &&
      +                           (11<=dist_B) && (dist_B<=17)){
  3908   001026  0E47               	movlw	71
  3909   001028  0100               	movlb	0	; () banked
  3910   00102A  6578               	cpfsgt	detect_color@dist_R& (0+255),b
  3911   00102C  EF1A  F008         	goto	u5091
  3912   001030  EF1C  F008         	goto	u5090
  3913   001034                     u5091:
  3914   001034  EF48  F008         	goto	l4608
  3915   001038                     u5090:
  3916   001038                     
  3917                           ; BSR set to: 0
  3918   001038  0E4F               	movlw	79
  3919   00103A  6178               	cpfslt	detect_color@dist_R& (0+255),b
  3920   00103C  EF22  F008         	goto	u5101
  3921   001040  EF24  F008         	goto	u5100
  3922   001044                     u5101:
  3923   001044  EF48  F008         	goto	l4608
  3924   001048                     u5100:
  3925   001048                     
  3926                           ; BSR set to: 0
  3927   001048  0E07               	movlw	7
  3928   00104A  6579               	cpfsgt	detect_color@dist_G& (0+255),b
  3929   00104C  EF2A  F008         	goto	u5111
  3930   001050  EF2C  F008         	goto	u5110
  3931   001054                     u5111:
  3932   001054  EF48  F008         	goto	l4608
  3933   001058                     u5110:
  3934   001058                     
  3935                           ; BSR set to: 0
  3936   001058  0E0F               	movlw	15
  3937   00105A  6179               	cpfslt	detect_color@dist_G& (0+255),b
  3938   00105C  EF32  F008         	goto	u5121
  3939   001060  EF34  F008         	goto	u5120
  3940   001064                     u5121:
  3941   001064  EF48  F008         	goto	l4608
  3942   001068                     u5120:
  3943   001068                     
  3944                           ; BSR set to: 0
  3945   001068  0E0A               	movlw	10
  3946   00106A  657A               	cpfsgt	detect_color@dist_B& (0+255),b
  3947   00106C  EF3A  F008         	goto	u5131
  3948   001070  EF3C  F008         	goto	u5130
  3949   001074                     u5131:
  3950   001074  EF48  F008         	goto	l4608
  3951   001078                     u5130:
  3952   001078                     
  3953                           ; BSR set to: 0
  3954   001078  0E12               	movlw	18
  3955   00107A  617A               	cpfslt	detect_color@dist_B& (0+255),b
  3956   00107C  EF42  F008         	goto	u5141
  3957   001080  EF44  F008         	goto	u5140
  3958   001084                     u5141:
  3959   001084  EF48  F008         	goto	l4608
  3960   001088                     u5140:
  3961   001088                     
  3962                           ; BSR set to: 0
  3963                           ;color.c: 112:             color = 1;
  3964   001088  0E01               	movlw	1
  3965   00108A  6F77               	movwf	detect_color@color& (0+255),b
  3966                           
  3967                           ;color.c: 113:         }
  3968   00108C  EFB4  F009         	goto	l44
  3969   001090                     l4608:
  3970                           
  3971                           ; BSR set to: 0
  3972   001090  0E21               	movlw	33
  3973   001092  6578               	cpfsgt	detect_color@dist_R& (0+255),b
  3974   001094  EF4E  F008         	goto	u5151
  3975   001098  EF50  F008         	goto	u5150
  3976   00109C                     u5151:
  3977   00109C  EF7C  F008         	goto	l4622
  3978   0010A0                     u5150:
  3979   0010A0                     
  3980                           ; BSR set to: 0
  3981   0010A0  0E29               	movlw	41
  3982   0010A2  6178               	cpfslt	detect_color@dist_R& (0+255),b
  3983   0010A4  EF56  F008         	goto	u5161
  3984   0010A8  EF58  F008         	goto	u5160
  3985   0010AC                     u5161:
  3986   0010AC  EF7C  F008         	goto	l4622
  3987   0010B0                     u5160:
  3988   0010B0                     
  3989                           ; BSR set to: 0
  3990   0010B0  0E26               	movlw	38
  3991   0010B2  6579               	cpfsgt	detect_color@dist_G& (0+255),b
  3992   0010B4  EF5E  F008         	goto	u5171
  3993   0010B8  EF60  F008         	goto	u5170
  3994   0010BC                     u5171:
  3995   0010BC  EF7C  F008         	goto	l4622
  3996   0010C0                     u5170:
  3997   0010C0                     
  3998                           ; BSR set to: 0
  3999   0010C0  0E2E               	movlw	46
  4000   0010C2  6179               	cpfslt	detect_color@dist_G& (0+255),b
  4001   0010C4  EF66  F008         	goto	u5181
  4002   0010C8  EF68  F008         	goto	u5180
  4003   0010CC                     u5181:
  4004   0010CC  EF7C  F008         	goto	l4622
  4005   0010D0                     u5180:
  4006   0010D0                     
  4007                           ; BSR set to: 0
  4008   0010D0  0E11               	movlw	17
  4009   0010D2  657A               	cpfsgt	detect_color@dist_B& (0+255),b
  4010   0010D4  EF6E  F008         	goto	u5191
  4011   0010D8  EF70  F008         	goto	u5190
  4012   0010DC                     u5191:
  4013   0010DC  EF7C  F008         	goto	l4622
  4014   0010E0                     u5190:
  4015   0010E0                     
  4016                           ; BSR set to: 0
  4017   0010E0  0E19               	movlw	25
  4018   0010E2  617A               	cpfslt	detect_color@dist_B& (0+255),b
  4019   0010E4  EF76  F008         	goto	u5201
  4020   0010E8  EF78  F008         	goto	u5200
  4021   0010EC                     u5201:
  4022   0010EC  EF7C  F008         	goto	l4622
  4023   0010F0                     u5200:
  4024   0010F0                     
  4025                           ; BSR set to: 0
  4026                           ;color.c: 115:             color = 2;
  4027   0010F0  0E02               	movlw	2
  4028   0010F2  6F77               	movwf	detect_color@color& (0+255),b
  4029                           
  4030                           ;color.c: 116:         }
  4031   0010F4  EFB4  F009         	goto	l44
  4032   0010F8                     l4622:
  4033                           
  4034                           ; BSR set to: 0
  4035   0010F8  0E1B               	movlw	27
  4036   0010FA  6578               	cpfsgt	detect_color@dist_R& (0+255),b
  4037   0010FC  EF82  F008         	goto	u5211
  4038   001100  EF84  F008         	goto	u5210
  4039   001104                     u5211:
  4040   001104  EFB0  F008         	goto	l4636
  4041   001108                     u5210:
  4042   001108                     
  4043                           ; BSR set to: 0
  4044   001108  0E23               	movlw	35
  4045   00110A  6178               	cpfslt	detect_color@dist_R& (0+255),b
  4046   00110C  EF8A  F008         	goto	u5221
  4047   001110  EF8C  F008         	goto	u5220
  4048   001114                     u5221:
  4049   001114  EFB0  F008         	goto	l4636
  4050   001118                     u5220:
  4051   001118                     
  4052                           ; BSR set to: 0
  4053   001118  0E1F               	movlw	31
  4054   00111A  6579               	cpfsgt	detect_color@dist_G& (0+255),b
  4055   00111C  EF92  F008         	goto	u5231
  4056   001120  EF94  F008         	goto	u5230
  4057   001124                     u5231:
  4058   001124  EFB0  F008         	goto	l4636
  4059   001128                     u5230:
  4060   001128                     
  4061                           ; BSR set to: 0
  4062   001128  0E27               	movlw	39
  4063   00112A  6179               	cpfslt	detect_color@dist_G& (0+255),b
  4064   00112C  EF9A  F008         	goto	u5241
  4065   001130  EF9C  F008         	goto	u5240
  4066   001134                     u5241:
  4067   001134  EFB0  F008         	goto	l4636
  4068   001138                     u5240:
  4069   001138                     
  4070                           ; BSR set to: 0
  4071   001138  0E1E               	movlw	30
  4072   00113A  657A               	cpfsgt	detect_color@dist_B& (0+255),b
  4073   00113C  EFA2  F008         	goto	u5251
  4074   001140  EFA4  F008         	goto	u5250
  4075   001144                     u5251:
  4076   001144  EFB0  F008         	goto	l4636
  4077   001148                     u5250:
  4078   001148                     
  4079                           ; BSR set to: 0
  4080   001148  0E26               	movlw	38
  4081   00114A  617A               	cpfslt	detect_color@dist_B& (0+255),b
  4082   00114C  EFAA  F008         	goto	u5261
  4083   001150  EFAC  F008         	goto	u5260
  4084   001154                     u5261:
  4085   001154  EFB0  F008         	goto	l4636
  4086   001158                     u5260:
  4087   001158                     
  4088                           ; BSR set to: 0
  4089                           ;color.c: 118:             color = 3;
  4090   001158  0E03               	movlw	3
  4091   00115A  6F77               	movwf	detect_color@color& (0+255),b
  4092                           
  4093                           ;color.c: 119:         }
  4094   00115C  EFB4  F009         	goto	l44
  4095   001160                     l4636:
  4096                           
  4097                           ; BSR set to: 0
  4098   001160  0E31               	movlw	49
  4099   001162  6578               	cpfsgt	detect_color@dist_R& (0+255),b
  4100   001164  EFB6  F008         	goto	u5271
  4101   001168  EFB8  F008         	goto	u5270
  4102   00116C                     u5271:
  4103   00116C  EFE4  F008         	goto	l4650
  4104   001170                     u5270:
  4105   001170                     
  4106                           ; BSR set to: 0
  4107   001170  0E35               	movlw	53
  4108   001172  6178               	cpfslt	detect_color@dist_R& (0+255),b
  4109   001174  EFBE  F008         	goto	u5281
  4110   001178  EFC0  F008         	goto	u5280
  4111   00117C                     u5281:
  4112   00117C  EFE4  F008         	goto	l4650
  4113   001180                     u5280:
  4114   001180                     
  4115                           ; BSR set to: 0
  4116   001180  0E1D               	movlw	29
  4117   001182  6579               	cpfsgt	detect_color@dist_G& (0+255),b
  4118   001184  EFC6  F008         	goto	u5291
  4119   001188  EFC8  F008         	goto	u5290
  4120   00118C                     u5291:
  4121   00118C  EFE4  F008         	goto	l4650
  4122   001190                     u5290:
  4123   001190                     
  4124                           ; BSR set to: 0
  4125   001190  0E21               	movlw	33
  4126   001192  6179               	cpfslt	detect_color@dist_G& (0+255),b
  4127   001194  EFCE  F008         	goto	u5301
  4128   001198  EFD0  F008         	goto	u5300
  4129   00119C                     u5301:
  4130   00119C  EFE4  F008         	goto	l4650
  4131   0011A0                     u5300:
  4132   0011A0                     
  4133                           ; BSR set to: 0
  4134   0011A0  0E10               	movlw	16
  4135   0011A2  657A               	cpfsgt	detect_color@dist_B& (0+255),b
  4136   0011A4  EFD6  F008         	goto	u5311
  4137   0011A8  EFD8  F008         	goto	u5310
  4138   0011AC                     u5311:
  4139   0011AC  EFE4  F008         	goto	l4650
  4140   0011B0                     u5310:
  4141   0011B0                     
  4142                           ; BSR set to: 0
  4143   0011B0  0E14               	movlw	20
  4144   0011B2  617A               	cpfslt	detect_color@dist_B& (0+255),b
  4145   0011B4  EFDE  F008         	goto	u5321
  4146   0011B8  EFE0  F008         	goto	u5320
  4147   0011BC                     u5321:
  4148   0011BC  EFE4  F008         	goto	l4650
  4149   0011C0                     u5320:
  4150   0011C0                     
  4151                           ; BSR set to: 0
  4152                           ;color.c: 121:             color = 4;
  4153   0011C0  0E04               	movlw	4
  4154   0011C2  6F77               	movwf	detect_color@color& (0+255),b
  4155                           
  4156                           ;color.c: 122:         }
  4157   0011C4  EFB4  F009         	goto	l44
  4158   0011C8                     l4650:
  4159                           
  4160                           ; BSR set to: 0
  4161   0011C8  0E2F               	movlw	47
  4162   0011CA  6578               	cpfsgt	detect_color@dist_R& (0+255),b
  4163   0011CC  EFEA  F008         	goto	u5331
  4164   0011D0  EFEC  F008         	goto	u5330
  4165   0011D4                     u5331:
  4166   0011D4  EF18  F009         	goto	l4664
  4167   0011D8                     u5330:
  4168   0011D8                     
  4169                           ; BSR set to: 0
  4170   0011D8  0E33               	movlw	51
  4171   0011DA  6178               	cpfslt	detect_color@dist_R& (0+255),b
  4172   0011DC  EFF2  F008         	goto	u5341
  4173   0011E0  EFF4  F008         	goto	u5340
  4174   0011E4                     u5341:
  4175   0011E4  EF18  F009         	goto	l4664
  4176   0011E8                     u5340:
  4177   0011E8                     
  4178                           ; BSR set to: 0
  4179   0011E8  0E1B               	movlw	27
  4180   0011EA  6579               	cpfsgt	detect_color@dist_G& (0+255),b
  4181   0011EC  EFFA  F008         	goto	u5351
  4182   0011F0  EFFC  F008         	goto	u5350
  4183   0011F4                     u5351:
  4184   0011F4  EF18  F009         	goto	l4664
  4185   0011F8                     u5350:
  4186   0011F8                     
  4187                           ; BSR set to: 0
  4188   0011F8  0E1F               	movlw	31
  4189   0011FA  6179               	cpfslt	detect_color@dist_G& (0+255),b
  4190   0011FC  EF02  F009         	goto	u5361
  4191   001200  EF04  F009         	goto	u5360
  4192   001204                     u5361:
  4193   001204  EF18  F009         	goto	l4664
  4194   001208                     u5360:
  4195   001208                     
  4196                           ; BSR set to: 0
  4197   001208  0E14               	movlw	20
  4198   00120A  657A               	cpfsgt	detect_color@dist_B& (0+255),b
  4199   00120C  EF0A  F009         	goto	u5371
  4200   001210  EF0C  F009         	goto	u5370
  4201   001214                     u5371:
  4202   001214  EF18  F009         	goto	l4664
  4203   001218                     u5370:
  4204   001218                     
  4205                           ; BSR set to: 0
  4206   001218  0E18               	movlw	24
  4207   00121A  617A               	cpfslt	detect_color@dist_B& (0+255),b
  4208   00121C  EF12  F009         	goto	u5381
  4209   001220  EF14  F009         	goto	u5380
  4210   001224                     u5381:
  4211   001224  EF18  F009         	goto	l4664
  4212   001228                     u5380:
  4213   001228                     
  4214                           ; BSR set to: 0
  4215                           ;color.c: 124:             color = 5;
  4216   001228  0E05               	movlw	5
  4217   00122A  6F77               	movwf	detect_color@color& (0+255),b
  4218                           
  4219                           ;color.c: 125:         }
  4220   00122C  EFB4  F009         	goto	l44
  4221   001230                     l4664:
  4222                           
  4223                           ; BSR set to: 0
  4224   001230  0E38               	movlw	56
  4225   001232  6578               	cpfsgt	detect_color@dist_R& (0+255),b
  4226   001234  EF1E  F009         	goto	u5391
  4227   001238  EF20  F009         	goto	u5390
  4228   00123C                     u5391:
  4229   00123C  EF4C  F009         	goto	l4678
  4230   001240                     u5390:
  4231   001240                     
  4232                           ; BSR set to: 0
  4233   001240  0E40               	movlw	64
  4234   001242  6178               	cpfslt	detect_color@dist_R& (0+255),b
  4235   001244  EF26  F009         	goto	u5401
  4236   001248  EF28  F009         	goto	u5400
  4237   00124C                     u5401:
  4238   00124C  EF4C  F009         	goto	l4678
  4239   001250                     u5400:
  4240   001250                     
  4241                           ; BSR set to: 0
  4242   001250  0E13               	movlw	19
  4243   001252  6579               	cpfsgt	detect_color@dist_G& (0+255),b
  4244   001254  EF2E  F009         	goto	u5411
  4245   001258  EF30  F009         	goto	u5410
  4246   00125C                     u5411:
  4247   00125C  EF4C  F009         	goto	l4678
  4248   001260                     u5410:
  4249   001260                     
  4250                           ; BSR set to: 0
  4251   001260  0E1B               	movlw	27
  4252   001262  6179               	cpfslt	detect_color@dist_G& (0+255),b
  4253   001264  EF36  F009         	goto	u5421
  4254   001268  EF38  F009         	goto	u5420
  4255   00126C                     u5421:
  4256   00126C  EF4C  F009         	goto	l4678
  4257   001270                     u5420:
  4258   001270                     
  4259                           ; BSR set to: 0
  4260   001270  0E0D               	movlw	13
  4261   001272  657A               	cpfsgt	detect_color@dist_B& (0+255),b
  4262   001274  EF3E  F009         	goto	u5431
  4263   001278  EF40  F009         	goto	u5430
  4264   00127C                     u5431:
  4265   00127C  EF4C  F009         	goto	l4678
  4266   001280                     u5430:
  4267   001280                     
  4268                           ; BSR set to: 0
  4269   001280  0E15               	movlw	21
  4270   001282  617A               	cpfslt	detect_color@dist_B& (0+255),b
  4271   001284  EF46  F009         	goto	u5441
  4272   001288  EF48  F009         	goto	u5440
  4273   00128C                     u5441:
  4274   00128C  EF4C  F009         	goto	l4678
  4275   001290                     u5440:
  4276   001290                     
  4277                           ; BSR set to: 0
  4278                           ;color.c: 127:             color = 6;
  4279   001290  0E06               	movlw	6
  4280   001292  6F77               	movwf	detect_color@color& (0+255),b
  4281                           
  4282                           ;color.c: 128:         }
  4283   001294  EFB4  F009         	goto	l44
  4284   001298                     l4678:
  4285                           
  4286                           ; BSR set to: 0
  4287   001298  0E1E               	movlw	30
  4288   00129A  6578               	cpfsgt	detect_color@dist_R& (0+255),b
  4289   00129C  EF52  F009         	goto	u5451
  4290   0012A0  EF54  F009         	goto	u5450
  4291   0012A4                     u5451:
  4292   0012A4  EF80  F009         	goto	l4692
  4293   0012A8                     u5450:
  4294   0012A8                     
  4295                           ; BSR set to: 0
  4296   0012A8  0E26               	movlw	38
  4297   0012AA  6178               	cpfslt	detect_color@dist_R& (0+255),b
  4298   0012AC  EF5A  F009         	goto	u5461
  4299   0012B0  EF5C  F009         	goto	u5460
  4300   0012B4                     u5461:
  4301   0012B4  EF80  F009         	goto	l4692
  4302   0012B8                     u5460:
  4303   0012B8                     
  4304                           ; BSR set to: 0
  4305   0012B8  0E23               	movlw	35
  4306   0012BA  6579               	cpfsgt	detect_color@dist_G& (0+255),b
  4307   0012BC  EF62  F009         	goto	u5471
  4308   0012C0  EF64  F009         	goto	u5470
  4309   0012C4                     u5471:
  4310   0012C4  EF80  F009         	goto	l4692
  4311   0012C8                     u5470:
  4312   0012C8                     
  4313                           ; BSR set to: 0
  4314   0012C8  0E2B               	movlw	43
  4315   0012CA  6179               	cpfslt	detect_color@dist_G& (0+255),b
  4316   0012CC  EF6A  F009         	goto	u5481
  4317   0012D0  EF6C  F009         	goto	u5480
  4318   0012D4                     u5481:
  4319   0012D4  EF80  F009         	goto	l4692
  4320   0012D8                     u5480:
  4321   0012D8                     
  4322                           ; BSR set to: 0
  4323   0012D8  0E17               	movlw	23
  4324   0012DA  657A               	cpfsgt	detect_color@dist_B& (0+255),b
  4325   0012DC  EF72  F009         	goto	u5491
  4326   0012E0  EF74  F009         	goto	u5490
  4327   0012E4                     u5491:
  4328   0012E4  EF80  F009         	goto	l4692
  4329   0012E8                     u5490:
  4330   0012E8                     
  4331                           ; BSR set to: 0
  4332   0012E8  0E1F               	movlw	31
  4333   0012EA  617A               	cpfslt	detect_color@dist_B& (0+255),b
  4334   0012EC  EF7A  F009         	goto	u5501
  4335   0012F0  EF7C  F009         	goto	u5500
  4336   0012F4                     u5501:
  4337   0012F4  EF80  F009         	goto	l4692
  4338   0012F8                     u5500:
  4339   0012F8                     
  4340                           ; BSR set to: 0
  4341                           ;color.c: 130:             color = 7;
  4342   0012F8  0E07               	movlw	7
  4343   0012FA  6F77               	movwf	detect_color@color& (0+255),b
  4344                           
  4345                           ;color.c: 131:         }
  4346   0012FC  EFB4  F009         	goto	l44
  4347   001300                     l4692:
  4348                           
  4349                           ; BSR set to: 0
  4350   001300  0E28               	movlw	40
  4351   001302  6578               	cpfsgt	detect_color@dist_R& (0+255),b
  4352   001304  EF86  F009         	goto	u5511
  4353   001308  EF88  F009         	goto	u5510
  4354   00130C                     u5511:
  4355   00130C  EFB4  F009         	goto	l52
  4356   001310                     u5510:
  4357   001310                     
  4358                           ; BSR set to: 0
  4359   001310  0E30               	movlw	48
  4360   001312  6178               	cpfslt	detect_color@dist_R& (0+255),b
  4361   001314  EF8E  F009         	goto	u5521
  4362   001318  EF90  F009         	goto	u5520
  4363   00131C                     u5521:
  4364   00131C  EFB4  F009         	goto	l52
  4365   001320                     u5520:
  4366   001320                     
  4367                           ; BSR set to: 0
  4368   001320  0E1D               	movlw	29
  4369   001322  6579               	cpfsgt	detect_color@dist_G& (0+255),b
  4370   001324  EF96  F009         	goto	u5531
  4371   001328  EF98  F009         	goto	u5530
  4372   00132C                     u5531:
  4373   00132C  EFB4  F009         	goto	l52
  4374   001330                     u5530:
  4375   001330                     
  4376                           ; BSR set to: 0
  4377   001330  0E25               	movlw	37
  4378   001332  6179               	cpfslt	detect_color@dist_G& (0+255),b
  4379   001334  EF9E  F009         	goto	u5541
  4380   001338  EFA0  F009         	goto	u5540
  4381   00133C                     u5541:
  4382   00133C  EFB4  F009         	goto	l52
  4383   001340                     u5540:
  4384   001340                     
  4385                           ; BSR set to: 0
  4386   001340  0E13               	movlw	19
  4387   001342  657A               	cpfsgt	detect_color@dist_B& (0+255),b
  4388   001344  EFA6  F009         	goto	u5551
  4389   001348  EFA8  F009         	goto	u5550
  4390   00134C                     u5551:
  4391   00134C  EFB4  F009         	goto	l52
  4392   001350                     u5550:
  4393   001350                     
  4394                           ; BSR set to: 0
  4395   001350  0E1B               	movlw	27
  4396   001352  617A               	cpfslt	detect_color@dist_B& (0+255),b
  4397   001354  EFAE  F009         	goto	u5561
  4398   001358  EFB0  F009         	goto	u5560
  4399   00135C                     u5561:
  4400   00135C  EFB4  F009         	goto	l52
  4401   001360                     u5560:
  4402   001360                     
  4403                           ; BSR set to: 0
  4404                           ;color.c: 133:             color = 8;
  4405   001360  0E08               	movlw	8
  4406   001362  6F77               	movwf	detect_color@color& (0+255),b
  4407   001364  EFB4  F009         	goto	l44
  4408   001368                     l52:
  4409   001368                     l44:
  4410                           
  4411                           ; BSR set to: 0
  4412                           ;color.c: 136:         color_flag = 0;
  4413   001368  0E00               	movlw	0
  4414   00136A  6FB5               	movwf	_color_flag& (0+255),b
  4415                           
  4416                           ;color.c: 137:         return color;
  4417   00136C  5177               	movf	detect_color@color& (0+255),w,b
  4418   00136E                     l58:
  4419                           
  4420                           ; BSR set to: 0
  4421   00136E  0012               	return		;funcret
  4422   001370                     __end_of_detect_color:
  4423                           	callstack 0
  4424                           
  4425 ;; *************** function ___xxtofl *****************
  4426 ;; Defined at:
  4427 ;;		line 10 in file "D:\MPLAB_COMPILER\pic\sources\c99\common\xxtofl.c"
  4428 ;; Parameters:    Size  Location     Type
  4429 ;;  sign            1    wreg     unsigned char 
  4430 ;;  val             4   11[COMRAM] long 
  4431 ;; Auto vars:     Size  Location     Type
  4432 ;;  sign            1   19[COMRAM] unsigned char 
  4433 ;;  arg             4   21[COMRAM] unsigned long 
  4434 ;;  exp             1   20[COMRAM] unsigned char 
  4435 ;; Return value:  Size  Location     Type
  4436 ;;                  4   11[COMRAM] unsigned char 
  4437 ;; Registers used:
  4438 ;;		wreg, status,2, status,0
  4439 ;; Tracked objects:
  4440 ;;		On entry : 0/0
  4441 ;;		On exit  : 0/0
  4442 ;;		Unchanged: 0/0
  4443 ;; Data sizes:     COMRAM   BANK0   BANK1   BANK2   BANK3   BANK4   BANK5   BANK6   BANK7   BANK8   BANK9  BANK10  BANK1
      +1  BANK12  BANK13
  4444 ;;      Params:         4       0       0       0       0       0       0       0       0       0       0       0       
      +0       0       0
  4445 ;;      Locals:         6       0       0       0       0       0       0       0       0       0       0       0       
      +0       0       0
  4446 ;;      Temps:          4       0       0       0       0       0       0       0       0       0       0       0       
      +0       0       0
  4447 ;;      Totals:        14       0       0       0       0       0       0       0       0       0       0       0       
      +0       0       0
  4448 ;;Total ram usage:       14 bytes
  4449 ;; Hardware stack levels used: 1
  4450 ;; Hardware stack levels required when called: 7
  4451 ;; This function calls:
  4452 ;;		Nothing
  4453 ;; This function is called by:
  4454 ;;		_detect_color
  4455 ;; This function uses a non-reentrant model
  4456 ;;
  4457                           
  4458                           	psect	text22
  4459   0020A8                     __ptext22:
  4460                           	callstack 0
  4461   0020A8                     ___xxtofl:
  4462                           	callstack 22
  4463                           
  4464                           ; BSR set to: 0
  4465                           ;incstack = 0
  4466                           ;___xxtofl@sign stored from wreg
  4467   0020A8  6E14               	movwf	___xxtofl@sign^0,c
  4468   0020AA  5014               	movf	___xxtofl@sign^0,w,c
  4469   0020AC  B4D8               	btfsc	status,2,c
  4470   0020AE  EF5B  F010         	goto	u4971
  4471   0020B2  EF5D  F010         	goto	u4970
  4472   0020B6                     u4971:
  4473   0020B6  EF7F  F010         	goto	l1112
  4474   0020BA                     u4970:
  4475   0020BA  BE0F               	btfsc	(___xxtofl@val+3)^0,7,c
  4476   0020BC  EF64  F010         	goto	u4980
  4477   0020C0  EF62  F010         	goto	u4981
  4478   0020C4                     u4981:
  4479   0020C4  EF7F  F010         	goto	l1112
  4480   0020C8                     u4980:
  4481   0020C8  C00C  F010         	movff	___xxtofl@val,??___xxtofl
  4482   0020CC  C00D  F011         	movff	___xxtofl@val+1,??___xxtofl+1
  4483   0020D0  C00E  F012         	movff	___xxtofl@val+2,??___xxtofl+2
  4484   0020D4  C00F  F013         	movff	___xxtofl@val+3,??___xxtofl+3
  4485   0020D8  1E10               	comf	??___xxtofl^0,f,c
  4486   0020DA  1E11               	comf	(??___xxtofl+1)^0,f,c
  4487   0020DC  1E12               	comf	(??___xxtofl+2)^0,f,c
  4488   0020DE  1E13               	comf	(??___xxtofl+3)^0,f,c
  4489   0020E0  2A10               	incf	??___xxtofl^0,f,c
  4490   0020E2  0E00               	movlw	0
  4491   0020E4  2211               	addwfc	(??___xxtofl+1)^0,f,c
  4492   0020E6  2212               	addwfc	(??___xxtofl+2)^0,f,c
  4493   0020E8  2213               	addwfc	(??___xxtofl+3)^0,f,c
  4494   0020EA  C010  F016         	movff	??___xxtofl,___xxtofl@arg
  4495   0020EE  C011  F017         	movff	??___xxtofl+1,___xxtofl@arg+1
  4496   0020F2  C012  F018         	movff	??___xxtofl+2,___xxtofl@arg+2
  4497   0020F6  C013  F019         	movff	??___xxtofl+3,___xxtofl@arg+3
  4498   0020FA  EF87  F010         	goto	l4520
  4499   0020FE                     l1112:
  4500   0020FE  C00C  F016         	movff	___xxtofl@val,___xxtofl@arg
  4501   002102  C00D  F017         	movff	___xxtofl@val+1,___xxtofl@arg+1
  4502   002106  C00E  F018         	movff	___xxtofl@val+2,___xxtofl@arg+2
  4503   00210A  C00F  F019         	movff	___xxtofl@val+3,___xxtofl@arg+3
  4504   00210E                     l4520:
  4505   00210E  500C               	movf	___xxtofl@val^0,w,c
  4506   002110  100D               	iorwf	(___xxtofl@val+1)^0,w,c
  4507   002112  100E               	iorwf	(___xxtofl@val+2)^0,w,c
  4508   002114  100F               	iorwf	(___xxtofl@val+3)^0,w,c
  4509   002116  A4D8               	btfss	status,2,c
  4510   002118  EF90  F010         	goto	u4991
  4511   00211C  EF92  F010         	goto	u4990
  4512   002120                     u4991:
  4513   002120  EF9C  F010         	goto	l4526
  4514   002124                     u4990:
  4515   002124  0E00               	movlw	0
  4516   002126  6E0C               	movwf	?___xxtofl^0,c
  4517   002128  0E00               	movlw	0
  4518   00212A  6E0D               	movwf	(?___xxtofl+1)^0,c
  4519   00212C  0E00               	movlw	0
  4520   00212E  6E0E               	movwf	(?___xxtofl+2)^0,c
  4521   002130  0E00               	movlw	0
  4522   002132  6E0F               	movwf	(?___xxtofl+3)^0,c
  4523   002134  EF2D  F011         	goto	l1115
  4524   002138                     l4526:
  4525   002138  0E96               	movlw	150
  4526   00213A  6E15               	movwf	___xxtofl@exp^0,c
  4527   00213C  EFA6  F010         	goto	l4530
  4528   002140                     l4528:
  4529   002140  2A15               	incf	___xxtofl@exp^0,f,c
  4530   002142  90D8               	bcf	status,0,c
  4531   002144  3219               	rrcf	(___xxtofl@arg+3)^0,f,c
  4532   002146  3218               	rrcf	(___xxtofl@arg+2)^0,f,c
  4533   002148  3217               	rrcf	(___xxtofl@arg+1)^0,f,c
  4534   00214A  3216               	rrcf	___xxtofl@arg^0,f,c
  4535   00214C                     l4530:
  4536   00214C  0E00               	movlw	0
  4537   00214E  1416               	andwf	___xxtofl@arg^0,w,c
  4538   002150  6E10               	movwf	??___xxtofl^0,c
  4539   002152  0E00               	movlw	0
  4540   002154  1417               	andwf	(___xxtofl@arg+1)^0,w,c
  4541   002156  6E11               	movwf	(??___xxtofl+1)^0,c
  4542   002158  0E00               	movlw	0
  4543   00215A  1418               	andwf	(___xxtofl@arg+2)^0,w,c
  4544   00215C  6E12               	movwf	(??___xxtofl+2)^0,c
  4545   00215E  0EFE               	movlw	254
  4546   002160  1419               	andwf	(___xxtofl@arg+3)^0,w,c
  4547   002162  6E13               	movwf	(??___xxtofl+3)^0,c
  4548   002164  5010               	movf	??___xxtofl^0,w,c
  4549   002166  1011               	iorwf	(??___xxtofl+1)^0,w,c
  4550   002168  1012               	iorwf	(??___xxtofl+2)^0,w,c
  4551   00216A  1013               	iorwf	(??___xxtofl+3)^0,w,c
  4552   00216C  A4D8               	btfss	status,2,c
  4553   00216E  EFBB  F010         	goto	u5001
  4554   002172  EFBD  F010         	goto	u5000
  4555   002176                     u5001:
  4556   002176  EFA0  F010         	goto	l4528
  4557   00217A                     u5000:
  4558   00217A  EFCB  F010         	goto	l1119
  4559   00217E                     l4532:
  4560   00217E  2A15               	incf	___xxtofl@exp^0,f,c
  4561   002180  0E01               	movlw	1
  4562   002182  2616               	addwf	___xxtofl@arg^0,f,c
  4563   002184  0E00               	movlw	0
  4564   002186  2217               	addwfc	(___xxtofl@arg+1)^0,f,c
  4565   002188  2218               	addwfc	(___xxtofl@arg+2)^0,f,c
  4566   00218A  2219               	addwfc	(___xxtofl@arg+3)^0,f,c
  4567   00218C  90D8               	bcf	status,0,c
  4568   00218E  3219               	rrcf	(___xxtofl@arg+3)^0,f,c
  4569   002190  3218               	rrcf	(___xxtofl@arg+2)^0,f,c
  4570   002192  3217               	rrcf	(___xxtofl@arg+1)^0,f,c
  4571   002194  3216               	rrcf	___xxtofl@arg^0,f,c
  4572   002196                     l1119:
  4573   002196  0E00               	movlw	0
  4574   002198  1416               	andwf	___xxtofl@arg^0,w,c
  4575   00219A  6E10               	movwf	??___xxtofl^0,c
  4576   00219C  0E00               	movlw	0
  4577   00219E  1417               	andwf	(___xxtofl@arg+1)^0,w,c
  4578   0021A0  6E11               	movwf	(??___xxtofl+1)^0,c
  4579   0021A2  0E00               	movlw	0
  4580   0021A4  1418               	andwf	(___xxtofl@arg+2)^0,w,c
  4581   0021A6  6E12               	movwf	(??___xxtofl+2)^0,c
  4582   0021A8  0EFF               	movlw	255
  4583   0021AA  1419               	andwf	(___xxtofl@arg+3)^0,w,c
  4584   0021AC  6E13               	movwf	(??___xxtofl+3)^0,c
  4585   0021AE  5010               	movf	??___xxtofl^0,w,c
  4586   0021B0  1011               	iorwf	(??___xxtofl+1)^0,w,c
  4587   0021B2  1012               	iorwf	(??___xxtofl+2)^0,w,c
  4588   0021B4  1013               	iorwf	(??___xxtofl+3)^0,w,c
  4589   0021B6  A4D8               	btfss	status,2,c
  4590   0021B8  EFE0  F010         	goto	u5011
  4591   0021BC  EFE2  F010         	goto	u5010
  4592   0021C0                     u5011:
  4593   0021C0  EFBF  F010         	goto	l4532
  4594   0021C4                     u5010:
  4595   0021C4  EFEA  F010         	goto	l4540
  4596   0021C8                     l4538:
  4597   0021C8  0615               	decf	___xxtofl@exp^0,f,c
  4598   0021CA  90D8               	bcf	status,0,c
  4599   0021CC  3616               	rlcf	___xxtofl@arg^0,f,c
  4600   0021CE  3617               	rlcf	(___xxtofl@arg+1)^0,f,c
  4601   0021D0  3618               	rlcf	(___xxtofl@arg+2)^0,f,c
  4602   0021D2  3619               	rlcf	(___xxtofl@arg+3)^0,f,c
  4603   0021D4                     l4540:
  4604   0021D4  BE18               	btfsc	(___xxtofl@arg+2)^0,7,c
  4605   0021D6  EFEF  F010         	goto	u5021
  4606   0021DA  EFF1  F010         	goto	u5020
  4607   0021DE                     u5021:
  4608   0021DE  EFF9  F010         	goto	l1126
  4609   0021E2                     u5020:
  4610   0021E2  0E02               	movlw	2
  4611   0021E4  6015               	cpfslt	___xxtofl@exp^0,c
  4612   0021E6  EFF7  F010         	goto	u5031
  4613   0021EA  EFF9  F010         	goto	u5030
  4614   0021EE                     u5031:
  4615   0021EE  EFE4  F010         	goto	l4538
  4616   0021F2                     u5030:
  4617   0021F2                     l1126:
  4618   0021F2  B015               	btfsc	___xxtofl@exp^0,0,c
  4619   0021F4  EFFE  F010         	goto	u5041
  4620   0021F8  EF00  F011         	goto	u5040
  4621   0021FC                     u5041:
  4622   0021FC  EF01  F011         	goto	l4546
  4623   002200                     u5040:
  4624   002200  9E18               	bcf	(___xxtofl@arg+2)^0,7,c
  4625   002202                     l4546:
  4626   002202  90D8               	bcf	status,0,c
  4627   002204  3215               	rrcf	___xxtofl@exp^0,f,c
  4628   002206  C015  F010         	movff	___xxtofl@exp,??___xxtofl
  4629   00220A  6A11               	clrf	(??___xxtofl+1)^0,c
  4630   00220C  6A12               	clrf	(??___xxtofl+2)^0,c
  4631   00220E  6A13               	clrf	(??___xxtofl+3)^0,c
  4632   002210  C010  F013         	movff	??___xxtofl,??___xxtofl+3
  4633   002214  6A12               	clrf	(??___xxtofl+2)^0,c
  4634   002216  6A11               	clrf	(??___xxtofl+1)^0,c
  4635   002218  6A10               	clrf	??___xxtofl^0,c
  4636   00221A  5010               	movf	??___xxtofl^0,w,c
  4637   00221C  1216               	iorwf	___xxtofl@arg^0,f,c
  4638   00221E  5011               	movf	(??___xxtofl+1)^0,w,c
  4639   002220  1217               	iorwf	(___xxtofl@arg+1)^0,f,c
  4640   002222  5012               	movf	(??___xxtofl+2)^0,w,c
  4641   002224  1218               	iorwf	(___xxtofl@arg+2)^0,f,c
  4642   002226  5013               	movf	(??___xxtofl+3)^0,w,c
  4643   002228  1219               	iorwf	(___xxtofl@arg+3)^0,f,c
  4644   00222A  5014               	movf	___xxtofl@sign^0,w,c
  4645   00222C  B4D8               	btfsc	status,2,c
  4646   00222E  EF1B  F011         	goto	u5051
  4647   002232  EF1D  F011         	goto	u5050
  4648   002236                     u5051:
  4649   002236  EF25  F011         	goto	l4556
  4650   00223A                     u5050:
  4651   00223A  BE0F               	btfsc	(___xxtofl@val+3)^0,7,c
  4652   00223C  EF24  F011         	goto	u5060
  4653   002240  EF22  F011         	goto	u5061
  4654   002244                     u5061:
  4655   002244  EF25  F011         	goto	l4556
  4656   002248                     u5060:
  4657   002248  8E19               	bsf	(___xxtofl@arg+3)^0,7,c
  4658   00224A                     l4556:
  4659   00224A  C016  F00C         	movff	___xxtofl@arg,?___xxtofl
  4660   00224E  C017  F00D         	movff	___xxtofl@arg+1,?___xxtofl+1
  4661   002252  C018  F00E         	movff	___xxtofl@arg+2,?___xxtofl+2
  4662   002256  C019  F00F         	movff	___xxtofl@arg+3,?___xxtofl+3
  4663   00225A                     l1115:
  4664   00225A  0012               	return		;funcret
  4665   00225C                     __end_of___xxtofl:
  4666                           	callstack 0
  4667                           
  4668 ;; *************** function ___fltol *****************
  4669 ;; Defined at:
  4670 ;;		line 43 in file "D:\MPLAB_COMPILER\pic\sources\c99\common\fltol.c"
  4671 ;; Parameters:    Size  Location     Type
  4672 ;;  f1              4   62[COMRAM] unsigned char 
  4673 ;; Auto vars:     Size  Location     Type
  4674 ;;  exp1            1   71[COMRAM] unsigned char 
  4675 ;;  sign1           1   70[COMRAM] unsigned char 
  4676 ;; Return value:  Size  Location     Type
  4677 ;;                  4   62[COMRAM] long 
  4678 ;; Registers used:
  4679 ;;		wreg, status,2, status,0
  4680 ;; Tracked objects:
  4681 ;;		On entry : 0/0
  4682 ;;		On exit  : 0/0
  4683 ;;		Unchanged: 0/0
  4684 ;; Data sizes:     COMRAM   BANK0   BANK1   BANK2   BANK3   BANK4   BANK5   BANK6   BANK7   BANK8   BANK9  BANK10  BANK1
      +1  BANK12  BANK13
  4685 ;;      Params:         4       0       0       0       0       0       0       0       0       0       0       0       
      +0       0       0
  4686 ;;      Locals:         2       0       0       0       0       0       0       0       0       0       0       0       
      +0       0       0
  4687 ;;      Temps:          4       0       0       0       0       0       0       0       0       0       0       0       
      +0       0       0
  4688 ;;      Totals:        10       0       0       0       0       0       0       0       0       0       0       0       
      +0       0       0
  4689 ;;Total ram usage:       10 bytes
  4690 ;; Hardware stack levels used: 1
  4691 ;; Hardware stack levels required when called: 7
  4692 ;; This function calls:
  4693 ;;		Nothing
  4694 ;; This function is called by:
  4695 ;;		_detect_color
  4696 ;; This function uses a non-reentrant model
  4697 ;;
  4698                           
  4699                           	psect	text23
  4700   0026A6                     __ptext23:
  4701                           	callstack 0
  4702   0026A6                     ___fltol:
  4703                           	callstack 22
  4704   0026A6  3441               	rlcf	(___fltol@f1+2)^0,w,c
  4705   0026A8  3442               	rlcf	(___fltol@f1+3)^0,w,c
  4706   0026AA  6E48               	movwf	___fltol@exp1^0,c
  4707   0026AC  5048               	movf	___fltol@exp1^0,w,c
  4708   0026AE  A4D8               	btfss	status,2,c
  4709   0026B0  EF5C  F013         	goto	u4901
  4710   0026B4  EF5E  F013         	goto	u4900
  4711   0026B8                     u4901:
  4712   0026B8  EF68  F013         	goto	l4476
  4713   0026BC                     u4900:
  4714   0026BC                     l4472:
  4715   0026BC  0E00               	movlw	0
  4716   0026BE  6E3F               	movwf	?___fltol^0,c
  4717   0026C0  0E00               	movlw	0
  4718   0026C2  6E40               	movwf	(?___fltol+1)^0,c
  4719   0026C4  0E00               	movlw	0
  4720   0026C6  6E41               	movwf	(?___fltol+2)^0,c
  4721   0026C8  0E00               	movlw	0
  4722   0026CA  6E42               	movwf	(?___fltol+3)^0,c
  4723   0026CC  EFD5  F013         	goto	l754
  4724   0026D0                     l4476:
  4725   0026D0  C03F  F043         	movff	___fltol@f1,??___fltol
  4726   0026D4  C040  F044         	movff	___fltol@f1+1,??___fltol+1
  4727   0026D8  C041  F045         	movff	___fltol@f1+2,??___fltol+2
  4728   0026DC  C042  F046         	movff	___fltol@f1+3,??___fltol+3
  4729   0026E0  0E20               	movlw	32
  4730   0026E2  EF78  F013         	goto	u4910
  4731   0026E6                     u4915:
  4732   0026E6  90D8               	bcf	status,0,c
  4733   0026E8  3246               	rrcf	(??___fltol+3)^0,f,c
  4734   0026EA  3245               	rrcf	(??___fltol+2)^0,f,c
  4735   0026EC  3244               	rrcf	(??___fltol+1)^0,f,c
  4736   0026EE  3243               	rrcf	??___fltol^0,f,c
  4737   0026F0                     u4910:
  4738   0026F0  2EE8               	decfsz	wreg,f,c
  4739   0026F2  EF73  F013         	goto	u4915
  4740   0026F6  5043               	movf	??___fltol^0,w,c
  4741   0026F8  6E47               	movwf	___fltol@sign1^0,c
  4742   0026FA  8E41               	bsf	(___fltol@f1+2)^0,7,c
  4743   0026FC  0EFF               	movlw	255
  4744   0026FE  163F               	andwf	___fltol@f1^0,f,c
  4745   002700  0EFF               	movlw	255
  4746   002702  1640               	andwf	(___fltol@f1+1)^0,f,c
  4747   002704  0EFF               	movlw	255
  4748   002706  1641               	andwf	(___fltol@f1+2)^0,f,c
  4749   002708  0E00               	movlw	0
  4750   00270A  1642               	andwf	(___fltol@f1+3)^0,f,c
  4751   00270C  0E96               	movlw	150
  4752   00270E  5E48               	subwf	___fltol@exp1^0,f,c
  4753   002710  BE48               	btfsc	___fltol@exp1^0,7,c
  4754   002712  EF8F  F013         	goto	u4920
  4755   002716  EF8D  F013         	goto	u4921
  4756   00271A                     u4921:
  4757   00271A  EFA5  F013         	goto	l4496
  4758   00271E                     u4920:
  4759   00271E  5048               	movf	___fltol@exp1^0,w,c
  4760   002720  0A80               	xorlw	128
  4761   002722  0F97               	addlw	151
  4762   002724  B0D8               	btfsc	status,0,c
  4763   002726  EF97  F013         	goto	u4931
  4764   00272A  EF99  F013         	goto	u4930
  4765   00272E                     u4931:
  4766   00272E  EF9B  F013         	goto	l4492
  4767   002732                     u4930:
  4768   002732  EF5E  F013         	goto	l4472
  4769   002736                     l4492:
  4770   002736  90D8               	bcf	status,0,c
  4771   002738  3242               	rrcf	(___fltol@f1+3)^0,f,c
  4772   00273A  3241               	rrcf	(___fltol@f1+2)^0,f,c
  4773   00273C  3240               	rrcf	(___fltol@f1+1)^0,f,c
  4774   00273E  323F               	rrcf	___fltol@f1^0,f,c
  4775   002740  3E48               	incfsz	___fltol@exp1^0,f,c
  4776   002742  EF9B  F013         	goto	l4492
  4777   002746  EFBD  F013         	goto	l4506
  4778   00274A                     l4496:
  4779   00274A  0E1F               	movlw	31
  4780   00274C  6448               	cpfsgt	___fltol@exp1^0,c
  4781   00274E  EFAB  F013         	goto	u4941
  4782   002752  EFAD  F013         	goto	u4940
  4783   002756                     u4941:
  4784   002756  EFB5  F013         	goto	l4504
  4785   00275A                     u4940:
  4786   00275A  EF5E  F013         	goto	l4472
  4787   00275E                     l4502:
  4788   00275E  90D8               	bcf	status,0,c
  4789   002760  363F               	rlcf	___fltol@f1^0,f,c
  4790   002762  3640               	rlcf	(___fltol@f1+1)^0,f,c
  4791   002764  3641               	rlcf	(___fltol@f1+2)^0,f,c
  4792   002766  3642               	rlcf	(___fltol@f1+3)^0,f,c
  4793   002768  0648               	decf	___fltol@exp1^0,f,c
  4794   00276A                     l4504:
  4795   00276A  5048               	movf	___fltol@exp1^0,w,c
  4796   00276C  A4D8               	btfss	status,2,c
  4797   00276E  EFBB  F013         	goto	u4951
  4798   002772  EFBD  F013         	goto	u4950
  4799   002776                     u4951:
  4800   002776  EFAF  F013         	goto	l4502
  4801   00277A                     u4950:
  4802   00277A                     l4506:
  4803   00277A  5047               	movf	___fltol@sign1^0,w,c
  4804   00277C  B4D8               	btfsc	status,2,c
  4805   00277E  EFC3  F013         	goto	u4961
  4806   002782  EFC5  F013         	goto	u4960
  4807   002786                     u4961:
  4808   002786  EFCD  F013         	goto	l4510
  4809   00278A                     u4960:
  4810   00278A  1E42               	comf	(___fltol@f1+3)^0,f,c
  4811   00278C  1E41               	comf	(___fltol@f1+2)^0,f,c
  4812   00278E  1E40               	comf	(___fltol@f1+1)^0,f,c
  4813   002790  6C3F               	negf	___fltol@f1^0,c
  4814   002792  0E00               	movlw	0
  4815   002794  2240               	addwfc	(___fltol@f1+1)^0,f,c
  4816   002796  2241               	addwfc	(___fltol@f1+2)^0,f,c
  4817   002798  2242               	addwfc	(___fltol@f1+3)^0,f,c
  4818   00279A                     l4510:
  4819   00279A  C03F  F03F         	movff	___fltol@f1,?___fltol
  4820   00279E  C040  F040         	movff	___fltol@f1+1,?___fltol+1
  4821   0027A2  C041  F041         	movff	___fltol@f1+2,?___fltol+2
  4822   0027A6  C042  F042         	movff	___fltol@f1+3,?___fltol+3
  4823   0027AA                     l754:
  4824   0027AA  0012               	return		;funcret
  4825   0027AC                     __end_of___fltol:
  4826                           	callstack 0
  4827                           
  4828 ;; *************** function ___flmul *****************
  4829 ;; Defined at:
  4830 ;;		line 8 in file "D:\MPLAB_COMPILER\pic\sources\c99\common\sprcmul.c"
  4831 ;; Parameters:    Size  Location     Type
  4832 ;;  b               4   50[COMRAM] long 
  4833 ;;  a               4   54[COMRAM] long 
  4834 ;; Auto vars:     Size  Location     Type
  4835 ;;  prod            4    7[BANK0 ] struct .
  4836 ;;  grs             4    2[BANK0 ] unsigned long 
  4837 ;;  temp            2   11[BANK0 ] struct .
  4838 ;;  bexp            1    6[BANK0 ] unsigned char 
  4839 ;;  aexp            1    1[BANK0 ] unsigned char 
  4840 ;;  sign            1    0[BANK0 ] unsigned char 
  4841 ;; Return value:  Size  Location     Type
  4842 ;;                  4   50[COMRAM] unsigned char 
  4843 ;; Registers used:
  4844 ;;		wreg, status,2, status,0, prodl, prodh
  4845 ;; Tracked objects:
  4846 ;;		On entry : 0/0
  4847 ;;		On exit  : 0/0
  4848 ;;		Unchanged: 0/0
  4849 ;; Data sizes:     COMRAM   BANK0   BANK1   BANK2   BANK3   BANK4   BANK5   BANK6   BANK7   BANK8   BANK9  BANK10  BANK1
      +1  BANK12  BANK13
  4850 ;;      Params:         8       0       0       0       0       0       0       0       0       0       0       0       
      +0       0       0
  4851 ;;      Locals:         0      13       0       0       0       0       0       0       0       0       0       0       
      +0       0       0
  4852 ;;      Temps:          4       0       0       0       0       0       0       0       0       0       0       0       
      +0       0       0
  4853 ;;      Totals:        12      13       0       0       0       0       0       0       0       0       0       0       
      +0       0       0
  4854 ;;Total ram usage:       25 bytes
  4855 ;; Hardware stack levels used: 1
  4856 ;; Hardware stack levels required when called: 7
  4857 ;; This function calls:
  4858 ;;		Nothing
  4859 ;; This function is called by:
  4860 ;;		_detect_color
  4861 ;; This function uses a non-reentrant model
  4862 ;;
  4863                           
  4864                           	psect	text24
  4865   001370                     __ptext24:
  4866                           	callstack 0
  4867   001370                     ___flmul:
  4868                           	callstack 22
  4869   001370  5036               	movf	(___flmul@b+3)^0,w,c
  4870   001372  0B80               	andlw	128
  4871   001374  0100               	movlb	0	; () banked
  4872   001376  6F60               	movwf	___flmul@sign& (0+255),b
  4873   001378  5036               	movf	(___flmul@b+3)^0,w,c
  4874   00137A  2436               	addwf	(___flmul@b+3)^0,w,c
  4875   00137C  6F66               	movwf	___flmul@bexp& (0+255),b
  4876   00137E                     
  4877                           ; BSR set to: 0
  4878   00137E  AE35               	btfss	(___flmul@b+2)^0,7,c
  4879   001380  EFC4  F009         	goto	u4711
  4880   001384  EFC6  F009         	goto	u4710
  4881   001388                     u4711:
  4882   001388  EFC7  F009         	goto	l4346
  4883   00138C                     u4710:
  4884   00138C                     
  4885                           ; BSR set to: 0
  4886   00138C  8166               	bsf	___flmul@bexp& (0+255),0,b
  4887   00138E                     l4346:
  4888                           
  4889                           ; BSR set to: 0
  4890   00138E  5166               	movf	___flmul@bexp& (0+255),w,b
  4891   001390  B4D8               	btfsc	status,2,c
  4892   001392  EFCD  F009         	goto	u4721
  4893   001396  EFCF  F009         	goto	u4720
  4894   00139A                     u4721:
  4895   00139A  EFE2  F009         	goto	l4354
  4896   00139E                     u4720:
  4897   00139E                     
  4898                           ; BSR set to: 0
  4899   00139E  2966               	incf	___flmul@bexp& (0+255),w,b
  4900   0013A0  A4D8               	btfss	status,2,c
  4901   0013A2  EFD5  F009         	goto	u4731
  4902   0013A6  EFD7  F009         	goto	u4730
  4903   0013AA                     u4731:
  4904   0013AA  EFDF  F009         	goto	l4352
  4905   0013AE                     u4730:
  4906   0013AE                     
  4907                           ; BSR set to: 0
  4908   0013AE  0E00               	movlw	0
  4909   0013B0  6E33               	movwf	___flmul@b^0,c
  4910   0013B2  0E00               	movlw	0
  4911   0013B4  6E34               	movwf	(___flmul@b+1)^0,c
  4912   0013B6  0E00               	movlw	0
  4913   0013B8  6E35               	movwf	(___flmul@b+2)^0,c
  4914   0013BA  0E00               	movlw	0
  4915   0013BC  6E36               	movwf	(___flmul@b+3)^0,c
  4916   0013BE                     l4352:
  4917                           
  4918                           ; BSR set to: 0
  4919   0013BE  8E35               	bsf	(___flmul@b+2)^0,7,c
  4920   0013C0  EFEA  F009         	goto	l4356
  4921   0013C4                     l4354:
  4922                           
  4923                           ; BSR set to: 0
  4924   0013C4  0E00               	movlw	0
  4925   0013C6  6E33               	movwf	___flmul@b^0,c
  4926   0013C8  0E00               	movlw	0
  4927   0013CA  6E34               	movwf	(___flmul@b+1)^0,c
  4928   0013CC  0E00               	movlw	0
  4929   0013CE  6E35               	movwf	(___flmul@b+2)^0,c
  4930   0013D0  0E00               	movlw	0
  4931   0013D2  6E36               	movwf	(___flmul@b+3)^0,c
  4932   0013D4                     l4356:
  4933                           
  4934                           ; BSR set to: 0
  4935   0013D4  503A               	movf	(___flmul@a+3)^0,w,c
  4936   0013D6  0B80               	andlw	128
  4937   0013D8  1B60               	xorwf	___flmul@sign& (0+255),f,b
  4938   0013DA                     
  4939                           ; BSR set to: 0
  4940   0013DA  503A               	movf	(___flmul@a+3)^0,w,c
  4941   0013DC  243A               	addwf	(___flmul@a+3)^0,w,c
  4942   0013DE  6F61               	movwf	___flmul@aexp& (0+255),b
  4943   0013E0                     
  4944                           ; BSR set to: 0
  4945   0013E0  AE39               	btfss	(___flmul@a+2)^0,7,c
  4946   0013E2  EFF5  F009         	goto	u4741
  4947   0013E6  EFF7  F009         	goto	u4740
  4948   0013EA                     u4741:
  4949   0013EA  EFF8  F009         	goto	l4364
  4950   0013EE                     u4740:
  4951   0013EE                     
  4952                           ; BSR set to: 0
  4953   0013EE  8161               	bsf	___flmul@aexp& (0+255),0,b
  4954   0013F0                     l4364:
  4955                           
  4956                           ; BSR set to: 0
  4957   0013F0  5161               	movf	___flmul@aexp& (0+255),w,b
  4958   0013F2  B4D8               	btfsc	status,2,c
  4959   0013F4  EFFE  F009         	goto	u4751
  4960   0013F8  EF00  F00A         	goto	u4750
  4961   0013FC                     u4751:
  4962   0013FC  EF13  F00A         	goto	l4372
  4963   001400                     u4750:
  4964   001400                     
  4965                           ; BSR set to: 0
  4966   001400  2961               	incf	___flmul@aexp& (0+255),w,b
  4967   001402  A4D8               	btfss	status,2,c
  4968   001404  EF06  F00A         	goto	u4761
  4969   001408  EF08  F00A         	goto	u4760
  4970   00140C                     u4761:
  4971   00140C  EF10  F00A         	goto	l4370
  4972   001410                     u4760:
  4973   001410                     
  4974                           ; BSR set to: 0
  4975   001410  0E00               	movlw	0
  4976   001412  6E37               	movwf	___flmul@a^0,c
  4977   001414  0E00               	movlw	0
  4978   001416  6E38               	movwf	(___flmul@a+1)^0,c
  4979   001418  0E00               	movlw	0
  4980   00141A  6E39               	movwf	(___flmul@a+2)^0,c
  4981   00141C  0E00               	movlw	0
  4982   00141E  6E3A               	movwf	(___flmul@a+3)^0,c
  4983   001420                     l4370:
  4984                           
  4985                           ; BSR set to: 0
  4986   001420  8E39               	bsf	(___flmul@a+2)^0,7,c
  4987   001422  EF1B  F00A         	goto	l1071
  4988   001426                     l4372:
  4989                           
  4990                           ; BSR set to: 0
  4991   001426  0E00               	movlw	0
  4992   001428  6E37               	movwf	___flmul@a^0,c
  4993   00142A  0E00               	movlw	0
  4994   00142C  6E38               	movwf	(___flmul@a+1)^0,c
  4995   00142E  0E00               	movlw	0
  4996   001430  6E39               	movwf	(___flmul@a+2)^0,c
  4997   001432  0E00               	movlw	0
  4998   001434  6E3A               	movwf	(___flmul@a+3)^0,c
  4999   001436                     l1071:
  5000                           
  5001                           ; BSR set to: 0
  5002   001436  5161               	movf	___flmul@aexp& (0+255),w,b
  5003   001438  B4D8               	btfsc	status,2,c
  5004   00143A  EF21  F00A         	goto	u4771
  5005   00143E  EF23  F00A         	goto	u4770
  5006   001442                     u4771:
  5007   001442  EF2B  F00A         	goto	l4376
  5008   001446                     u4770:
  5009   001446                     
  5010                           ; BSR set to: 0
  5011   001446  5166               	movf	___flmul@bexp& (0+255),w,b
  5012   001448  A4D8               	btfss	status,2,c
  5013   00144A  EF29  F00A         	goto	u4781
  5014   00144E  EF2B  F00A         	goto	u4780
  5015   001452                     u4781:
  5016   001452  EF35  F00A         	goto	l4380
  5017   001456                     u4780:
  5018   001456                     l4376:
  5019                           
  5020                           ; BSR set to: 0
  5021   001456  0E00               	movlw	0
  5022   001458  6E33               	movwf	?___flmul^0,c
  5023   00145A  0E00               	movlw	0
  5024   00145C  6E34               	movwf	(?___flmul+1)^0,c
  5025   00145E  0E00               	movlw	0
  5026   001460  6E35               	movwf	(?___flmul+2)^0,c
  5027   001462  0E00               	movlw	0
  5028   001464  6E36               	movwf	(?___flmul+3)^0,c
  5029   001466  EFCD  F00B         	goto	l1075
  5030   00146A                     l4380:
  5031                           
  5032                           ; BSR set to: 0
  5033   00146A  5039               	movf	(___flmul@a+2)^0,w,c
  5034   00146C  0233               	mulwf	___flmul@b^0,c
  5035   00146E  CFF3 F06B          	movff	prodl,___flmul@temp
  5036   001472  CFF4 F06C          	movff	prodh,___flmul@temp+1
  5037   001476                     
  5038                           ; BSR set to: 0
  5039   001476  516B               	movf	___flmul@temp& (0+255),w,b
  5040   001478  6F62               	movwf	___flmul@grs& (0+255),b
  5041   00147A  6B63               	clrf	(___flmul@grs+1)& (0+255),b
  5042   00147C  6B64               	clrf	(___flmul@grs+2)& (0+255),b
  5043   00147E  6B65               	clrf	(___flmul@grs+3)& (0+255),b
  5044   001480                     
  5045                           ; BSR set to: 0
  5046   001480  516C               	movf	(___flmul@temp+1)& (0+255),w,b
  5047   001482  6F67               	movwf	___flmul@prod& (0+255),b
  5048   001484  6B68               	clrf	(___flmul@prod+1)& (0+255),b
  5049   001486  6B69               	clrf	(___flmul@prod+2)& (0+255),b
  5050   001488  6B6A               	clrf	(___flmul@prod+3)& (0+255),b
  5051   00148A  5038               	movf	(___flmul@a+1)^0,w,c
  5052   00148C  0234               	mulwf	(___flmul@b+1)^0,c
  5053   00148E  CFF3 F06B          	movff	prodl,___flmul@temp
  5054   001492  CFF4 F06C          	movff	prodh,___flmul@temp+1
  5055   001496                     
  5056                           ; BSR set to: 0
  5057   001496  516B               	movf	___flmul@temp& (0+255),w,b
  5058   001498  2762               	addwf	___flmul@grs& (0+255),f,b
  5059   00149A  0E00               	movlw	0
  5060   00149C  2363               	addwfc	(___flmul@grs+1)& (0+255),f,b
  5061   00149E  2364               	addwfc	(___flmul@grs+2)& (0+255),f,b
  5062   0014A0  2365               	addwfc	(___flmul@grs+3)& (0+255),f,b
  5063   0014A2                     
  5064                           ; BSR set to: 0
  5065   0014A2  516C               	movf	(___flmul@temp+1)& (0+255),w,b
  5066   0014A4  2767               	addwf	___flmul@prod& (0+255),f,b
  5067   0014A6  0E00               	movlw	0
  5068   0014A8  2368               	addwfc	(___flmul@prod+1)& (0+255),f,b
  5069   0014AA  2369               	addwfc	(___flmul@prod+2)& (0+255),f,b
  5070   0014AC  236A               	addwfc	(___flmul@prod+3)& (0+255),f,b
  5071   0014AE  5037               	movf	___flmul@a^0,w,c
  5072   0014B0  0235               	mulwf	(___flmul@b+2)^0,c
  5073   0014B2  CFF3 F06B          	movff	prodl,___flmul@temp
  5074   0014B6  CFF4 F06C          	movff	prodh,___flmul@temp+1
  5075   0014BA                     
  5076                           ; BSR set to: 0
  5077   0014BA  516B               	movf	___flmul@temp& (0+255),w,b
  5078   0014BC  2762               	addwf	___flmul@grs& (0+255),f,b
  5079   0014BE  0E00               	movlw	0
  5080   0014C0  2363               	addwfc	(___flmul@grs+1)& (0+255),f,b
  5081   0014C2  2364               	addwfc	(___flmul@grs+2)& (0+255),f,b
  5082   0014C4  2365               	addwfc	(___flmul@grs+3)& (0+255),f,b
  5083   0014C6                     
  5084                           ; BSR set to: 0
  5085   0014C6  516C               	movf	(___flmul@temp+1)& (0+255),w,b
  5086   0014C8  2767               	addwf	___flmul@prod& (0+255),f,b
  5087   0014CA  0E00               	movlw	0
  5088   0014CC  2368               	addwfc	(___flmul@prod+1)& (0+255),f,b
  5089   0014CE  2369               	addwfc	(___flmul@prod+2)& (0+255),f,b
  5090   0014D0  236A               	addwfc	(___flmul@prod+3)& (0+255),f,b
  5091   0014D2                     
  5092                           ; BSR set to: 0
  5093   0014D2  C064  F065         	movff	___flmul@grs+2,___flmul@grs+3
  5094   0014D6  C063  F064         	movff	___flmul@grs+1,___flmul@grs+2
  5095   0014DA  C062  F063         	movff	___flmul@grs,___flmul@grs+1
  5096   0014DE  6B62               	clrf	___flmul@grs& (0+255),b
  5097   0014E0                     
  5098                           ; BSR set to: 0
  5099   0014E0  5037               	movf	___flmul@a^0,w,c
  5100   0014E2  0234               	mulwf	(___flmul@b+1)^0,c
  5101   0014E4  CFF3 F06B          	movff	prodl,___flmul@temp
  5102   0014E8  CFF4 F06C          	movff	prodh,___flmul@temp+1
  5103   0014EC                     
  5104                           ; BSR set to: 0
  5105   0014EC  516B               	movf	___flmul@temp& (0+255),w,b
  5106   0014EE  2762               	addwf	___flmul@grs& (0+255),f,b
  5107   0014F0  516C               	movf	(___flmul@temp+1)& (0+255),w,b
  5108   0014F2  2363               	addwfc	(___flmul@grs+1)& (0+255),f,b
  5109   0014F4  0E00               	movlw	0
  5110   0014F6  2364               	addwfc	(___flmul@grs+2)& (0+255),f,b
  5111   0014F8  0E00               	movlw	0
  5112   0014FA  2365               	addwfc	(___flmul@grs+3)& (0+255),f,b
  5113   0014FC                     
  5114                           ; BSR set to: 0
  5115   0014FC  5038               	movf	(___flmul@a+1)^0,w,c
  5116   0014FE  0233               	mulwf	___flmul@b^0,c
  5117   001500  CFF3 F06B          	movff	prodl,___flmul@temp
  5118   001504  CFF4 F06C          	movff	prodh,___flmul@temp+1
  5119   001508                     
  5120                           ; BSR set to: 0
  5121   001508  516B               	movf	___flmul@temp& (0+255),w,b
  5122   00150A  2762               	addwf	___flmul@grs& (0+255),f,b
  5123   00150C  516C               	movf	(___flmul@temp+1)& (0+255),w,b
  5124   00150E  2363               	addwfc	(___flmul@grs+1)& (0+255),f,b
  5125   001510  0E00               	movlw	0
  5126   001512  2364               	addwfc	(___flmul@grs+2)& (0+255),f,b
  5127   001514  0E00               	movlw	0
  5128   001516  2365               	addwfc	(___flmul@grs+3)& (0+255),f,b
  5129   001518                     
  5130                           ; BSR set to: 0
  5131   001518  C064  F065         	movff	___flmul@grs+2,___flmul@grs+3
  5132   00151C  C063  F064         	movff	___flmul@grs+1,___flmul@grs+2
  5133   001520  C062  F063         	movff	___flmul@grs,___flmul@grs+1
  5134   001524  6B62               	clrf	___flmul@grs& (0+255),b
  5135   001526  5037               	movf	___flmul@a^0,w,c
  5136   001528  0233               	mulwf	___flmul@b^0,c
  5137   00152A  CFF3 F06B          	movff	prodl,___flmul@temp
  5138   00152E  CFF4 F06C          	movff	prodh,___flmul@temp+1
  5139   001532                     
  5140                           ; BSR set to: 0
  5141   001532  516B               	movf	___flmul@temp& (0+255),w,b
  5142   001534  2762               	addwf	___flmul@grs& (0+255),f,b
  5143   001536  516C               	movf	(___flmul@temp+1)& (0+255),w,b
  5144   001538  2363               	addwfc	(___flmul@grs+1)& (0+255),f,b
  5145   00153A  0E00               	movlw	0
  5146   00153C  2364               	addwfc	(___flmul@grs+2)& (0+255),f,b
  5147   00153E  0E00               	movlw	0
  5148   001540  2365               	addwfc	(___flmul@grs+3)& (0+255),f,b
  5149   001542                     
  5150                           ; BSR set to: 0
  5151   001542  5039               	movf	(___flmul@a+2)^0,w,c
  5152   001544  0234               	mulwf	(___flmul@b+1)^0,c
  5153   001546  CFF3 F06B          	movff	prodl,___flmul@temp
  5154   00154A  CFF4 F06C          	movff	prodh,___flmul@temp+1
  5155   00154E  516B               	movf	___flmul@temp& (0+255),w,b
  5156   001550  2767               	addwf	___flmul@prod& (0+255),f,b
  5157   001552  516C               	movf	(___flmul@temp+1)& (0+255),w,b
  5158   001554  2368               	addwfc	(___flmul@prod+1)& (0+255),f,b
  5159   001556  0E00               	movlw	0
  5160   001558  2369               	addwfc	(___flmul@prod+2)& (0+255),f,b
  5161   00155A  0E00               	movlw	0
  5162   00155C  236A               	addwfc	(___flmul@prod+3)& (0+255),f,b
  5163   00155E                     
  5164                           ; BSR set to: 0
  5165   00155E  5038               	movf	(___flmul@a+1)^0,w,c
  5166   001560  0235               	mulwf	(___flmul@b+2)^0,c
  5167   001562  CFF3 F06B          	movff	prodl,___flmul@temp
  5168   001566  CFF4 F06C          	movff	prodh,___flmul@temp+1
  5169   00156A                     
  5170                           ; BSR set to: 0
  5171   00156A  516B               	movf	___flmul@temp& (0+255),w,b
  5172   00156C  2767               	addwf	___flmul@prod& (0+255),f,b
  5173   00156E  516C               	movf	(___flmul@temp+1)& (0+255),w,b
  5174   001570  2368               	addwfc	(___flmul@prod+1)& (0+255),f,b
  5175   001572  0E00               	movlw	0
  5176   001574  2369               	addwfc	(___flmul@prod+2)& (0+255),f,b
  5177   001576  0E00               	movlw	0
  5178   001578  236A               	addwfc	(___flmul@prod+3)& (0+255),f,b
  5179   00157A  5039               	movf	(___flmul@a+2)^0,w,c
  5180   00157C  0235               	mulwf	(___flmul@b+2)^0,c
  5181   00157E  CFF3 F06B          	movff	prodl,___flmul@temp
  5182   001582  CFF4 F06C          	movff	prodh,___flmul@temp+1
  5183   001586                     
  5184                           ; BSR set to: 0
  5185   001586  516B               	movf	___flmul@temp& (0+255),w,b
  5186   001588  6E3B               	movwf	??___flmul^0,c
  5187   00158A  516C               	movf	(___flmul@temp+1)& (0+255),w,b
  5188   00158C  6E3C               	movwf	(??___flmul+1)^0,c
  5189   00158E  6A3D               	clrf	(??___flmul+2)^0,c
  5190   001590  6A3E               	clrf	(??___flmul+3)^0,c
  5191   001592  C03D  F03E         	movff	??___flmul+2,??___flmul+3
  5192   001596  C03C  F03D         	movff	??___flmul+1,??___flmul+2
  5193   00159A  C03B  F03C         	movff	??___flmul,??___flmul+1
  5194   00159E  6A3B               	clrf	??___flmul^0,c
  5195   0015A0  503B               	movf	??___flmul^0,w,c
  5196   0015A2  2767               	addwf	___flmul@prod& (0+255),f,b
  5197   0015A4  503C               	movf	(??___flmul+1)^0,w,c
  5198   0015A6  2368               	addwfc	(___flmul@prod+1)& (0+255),f,b
  5199   0015A8  503D               	movf	(??___flmul+2)^0,w,c
  5200   0015AA  2369               	addwfc	(___flmul@prod+2)& (0+255),f,b
  5201   0015AC  503E               	movf	(??___flmul+3)^0,w,c
  5202   0015AE  236A               	addwfc	(___flmul@prod+3)& (0+255),f,b
  5203   0015B0                     
  5204                           ; BSR set to: 0
  5205   0015B0  C062  F03B         	movff	___flmul@grs,??___flmul
  5206   0015B4  C063  F03C         	movff	___flmul@grs+1,??___flmul+1
  5207   0015B8  C064  F03D         	movff	___flmul@grs+2,??___flmul+2
  5208   0015BC  C065  F03E         	movff	___flmul@grs+3,??___flmul+3
  5209   0015C0  0E19               	movlw	25
  5210   0015C2  EFE8  F00A         	goto	u4790
  5211   0015C6                     u4795:
  5212   0015C6  90D8               	bcf	status,0,c
  5213   0015C8  323E               	rrcf	(??___flmul+3)^0,f,c
  5214   0015CA  323D               	rrcf	(??___flmul+2)^0,f,c
  5215   0015CC  323C               	rrcf	(??___flmul+1)^0,f,c
  5216   0015CE  323B               	rrcf	??___flmul^0,f,c
  5217   0015D0                     u4790:
  5218   0015D0  2EE8               	decfsz	wreg,f,c
  5219   0015D2  EFE3  F00A         	goto	u4795
  5220   0015D6  503B               	movf	??___flmul^0,w,c
  5221   0015D8  2767               	addwf	___flmul@prod& (0+255),f,b
  5222   0015DA  503C               	movf	(??___flmul+1)^0,w,c
  5223   0015DC  2368               	addwfc	(___flmul@prod+1)& (0+255),f,b
  5224   0015DE  503D               	movf	(??___flmul+2)^0,w,c
  5225   0015E0  2369               	addwfc	(___flmul@prod+2)& (0+255),f,b
  5226   0015E2  503E               	movf	(??___flmul+3)^0,w,c
  5227   0015E4  236A               	addwfc	(___flmul@prod+3)& (0+255),f,b
  5228   0015E6                     
  5229                           ; BSR set to: 0
  5230   0015E6  C064  F065         	movff	___flmul@grs+2,___flmul@grs+3
  5231   0015EA  C063  F064         	movff	___flmul@grs+1,___flmul@grs+2
  5232   0015EE  C062  F063         	movff	___flmul@grs,___flmul@grs+1
  5233   0015F2  6B62               	clrf	___flmul@grs& (0+255),b
  5234   0015F4                     
  5235                           ; BSR set to: 0
  5236   0015F4  5161               	movf	___flmul@aexp& (0+255),w,b
  5237   0015F6  C066  F03B         	movff	___flmul@bexp,??___flmul
  5238   0015FA  6A3C               	clrf	(??___flmul+1)^0,c
  5239   0015FC  263B               	addwf	??___flmul^0,f,c
  5240   0015FE  0E00               	movlw	0
  5241   001600  223C               	addwfc	(??___flmul+1)^0,f,c
  5242   001602  0E82               	movlw	130
  5243   001604  243B               	addwf	??___flmul^0,w,c
  5244   001606  6F6B               	movwf	___flmul@temp& (0+255),b
  5245   001608  0EFF               	movlw	255
  5246   00160A  203C               	addwfc	(??___flmul+1)^0,w,c
  5247   00160C  6F6C               	movwf	(___flmul@temp+1)& (0+255),b
  5248   00160E  EF1E  F00B         	goto	l4428
  5249   001612                     l4422:
  5250                           
  5251                           ; BSR set to: 0
  5252   001612  90D8               	bcf	status,0,c
  5253   001614  3767               	rlcf	___flmul@prod& (0+255),f,b
  5254   001616  3768               	rlcf	(___flmul@prod+1)& (0+255),f,b
  5255   001618  3769               	rlcf	(___flmul@prod+2)& (0+255),f,b
  5256   00161A  376A               	rlcf	(___flmul@prod+3)& (0+255),f,b
  5257   00161C                     
  5258                           ; BSR set to: 0
  5259   00161C  AF65               	btfss	(___flmul@grs+3)& (0+255),7,b
  5260   00161E  EF13  F00B         	goto	u4801
  5261   001622  EF15  F00B         	goto	u4800
  5262   001626                     u4801:
  5263   001626  EF16  F00B         	goto	l1078
  5264   00162A                     u4800:
  5265   00162A                     
  5266                           ; BSR set to: 0
  5267   00162A  8167               	bsf	___flmul@prod& (0+255),0,b
  5268   00162C                     l1078:
  5269                           
  5270                           ; BSR set to: 0
  5271   00162C  90D8               	bcf	status,0,c
  5272   00162E  3762               	rlcf	___flmul@grs& (0+255),f,b
  5273   001630  3763               	rlcf	(___flmul@grs+1)& (0+255),f,b
  5274   001632  3764               	rlcf	(___flmul@grs+2)& (0+255),f,b
  5275   001634  3765               	rlcf	(___flmul@grs+3)& (0+255),f,b
  5276   001636  076B               	decf	___flmul@temp& (0+255),f,b
  5277   001638  A0D8               	btfss	status,0,c
  5278   00163A  076C               	decf	(___flmul@temp+1)& (0+255),f,b
  5279   00163C                     l4428:
  5280                           
  5281                           ; BSR set to: 0
  5282   00163C  AF69               	btfss	(___flmul@prod+2)& (0+255),7,b
  5283   00163E  EF23  F00B         	goto	u4811
  5284   001642  EF25  F00B         	goto	u4810
  5285   001646                     u4811:
  5286   001646  EF09  F00B         	goto	l4422
  5287   00164A                     u4810:
  5288   00164A                     
  5289                           ; BSR set to: 0
  5290   00164A  0E00               	movlw	0
  5291   00164C  6F61               	movwf	___flmul@aexp& (0+255),b
  5292   00164E                     
  5293                           ; BSR set to: 0
  5294   00164E  AF65               	btfss	(___flmul@grs+3)& (0+255),7,b
  5295   001650  EF2C  F00B         	goto	u4821
  5296   001654  EF2E  F00B         	goto	u4820
  5297   001658                     u4821:
  5298   001658  EF52  F00B         	goto	l1080
  5299   00165C                     u4820:
  5300   00165C                     
  5301                           ; BSR set to: 0
  5302   00165C  0EFF               	movlw	255
  5303   00165E  1562               	andwf	___flmul@grs& (0+255),w,b
  5304   001660  6E3B               	movwf	??___flmul^0,c
  5305   001662  0EFF               	movlw	255
  5306   001664  1563               	andwf	(___flmul@grs+1)& (0+255),w,b
  5307   001666  6E3C               	movwf	(??___flmul+1)^0,c
  5308   001668  0EFF               	movlw	255
  5309   00166A  1564               	andwf	(___flmul@grs+2)& (0+255),w,b
  5310   00166C  6E3D               	movwf	(??___flmul+2)^0,c
  5311   00166E  0E7F               	movlw	127
  5312   001670  1565               	andwf	(___flmul@grs+3)& (0+255),w,b
  5313   001672  6E3E               	movwf	(??___flmul+3)^0,c
  5314   001674  503B               	movf	??___flmul^0,w,c
  5315   001676  103C               	iorwf	(??___flmul+1)^0,w,c
  5316   001678  103D               	iorwf	(??___flmul+2)^0,w,c
  5317   00167A  103E               	iorwf	(??___flmul+3)^0,w,c
  5318   00167C  B4D8               	btfsc	status,2,c
  5319   00167E  EF43  F00B         	goto	u4831
  5320   001682  EF45  F00B         	goto	u4830
  5321   001686                     u4831:
  5322   001686  EF49  F00B         	goto	l1081
  5323   00168A                     u4830:
  5324   00168A                     l4436:
  5325                           
  5326                           ; BSR set to: 0
  5327   00168A  0E01               	movlw	1
  5328   00168C  6F61               	movwf	___flmul@aexp& (0+255),b
  5329   00168E  EF52  F00B         	goto	l1080
  5330   001692                     l1081:
  5331                           
  5332                           ; BSR set to: 0
  5333   001692  A167               	btfss	___flmul@prod& (0+255),0,b
  5334   001694  EF4E  F00B         	goto	u4841
  5335   001698  EF50  F00B         	goto	u4840
  5336   00169C                     u4841:
  5337   00169C  EF52  F00B         	goto	l1080
  5338   0016A0                     u4840:
  5339   0016A0  EF45  F00B         	goto	l4436
  5340   0016A4                     l1080:
  5341                           
  5342                           ; BSR set to: 0
  5343   0016A4  5161               	movf	___flmul@aexp& (0+255),w,b
  5344   0016A6  B4D8               	btfsc	status,2,c
  5345   0016A8  EF58  F00B         	goto	u4851
  5346   0016AC  EF5A  F00B         	goto	u4850
  5347   0016B0                     u4851:
  5348   0016B0  EF7E  F00B         	goto	l4448
  5349   0016B4                     u4850:
  5350   0016B4                     
  5351                           ; BSR set to: 0
  5352   0016B4  0E01               	movlw	1
  5353   0016B6  2767               	addwf	___flmul@prod& (0+255),f,b
  5354   0016B8  0E00               	movlw	0
  5355   0016BA  2368               	addwfc	(___flmul@prod+1)& (0+255),f,b
  5356   0016BC  2369               	addwfc	(___flmul@prod+2)& (0+255),f,b
  5357   0016BE  236A               	addwfc	(___flmul@prod+3)& (0+255),f,b
  5358   0016C0                     
  5359                           ; BSR set to: 0
  5360   0016C0  A16A               	btfss	(___flmul@prod+3)& (0+255),0,b
  5361   0016C2  EF65  F00B         	goto	u4861
  5362   0016C6  EF67  F00B         	goto	u4860
  5363   0016CA                     u4861:
  5364   0016CA  EF7E  F00B         	goto	l4448
  5365   0016CE                     u4860:
  5366   0016CE                     
  5367                           ; BSR set to: 0
  5368   0016CE  C067  F03B         	movff	___flmul@prod,??___flmul
  5369   0016D2  C068  F03C         	movff	___flmul@prod+1,??___flmul+1
  5370   0016D6  C069  F03D         	movff	___flmul@prod+2,??___flmul+2
  5371   0016DA  C06A  F03E         	movff	___flmul@prod+3,??___flmul+3
  5372   0016DE  343E               	rlcf	(??___flmul+3)^0,w,c
  5373   0016E0  323E               	rrcf	(??___flmul+3)^0,f,c
  5374   0016E2  323D               	rrcf	(??___flmul+2)^0,f,c
  5375   0016E4  323C               	rrcf	(??___flmul+1)^0,f,c
  5376   0016E6  323B               	rrcf	??___flmul^0,f,c
  5377   0016E8  C03B  F067         	movff	??___flmul,___flmul@prod
  5378   0016EC  C03C  F068         	movff	??___flmul+1,___flmul@prod+1
  5379   0016F0  C03D  F069         	movff	??___flmul+2,___flmul@prod+2
  5380   0016F4  C03E  F06A         	movff	??___flmul+3,___flmul@prod+3
  5381   0016F8                     
  5382                           ; BSR set to: 0
  5383   0016F8  4B6B               	infsnz	___flmul@temp& (0+255),f,b
  5384   0016FA  2B6C               	incf	(___flmul@temp+1)& (0+255),f,b
  5385   0016FC                     l4448:
  5386                           
  5387                           ; BSR set to: 0
  5388   0016FC  BF6C               	btfsc	(___flmul@temp+1)& (0+255),7,b
  5389   0016FE  EF89  F00B         	goto	u4871
  5390   001702  516C               	movf	(___flmul@temp+1)& (0+255),w,b
  5391   001704  E108               	bnz	u4870
  5392   001706  296B               	incf	___flmul@temp& (0+255),w,b
  5393   001708  A0D8               	btfss	status,0,c
  5394   00170A  EF89  F00B         	goto	u4871
  5395   00170E  EF8B  F00B         	goto	u4870
  5396   001712                     u4871:
  5397   001712  EF95  F00B         	goto	l4452
  5398   001716                     u4870:
  5399   001716                     
  5400                           ; BSR set to: 0
  5401   001716  0E00               	movlw	0
  5402   001718  6F67               	movwf	___flmul@prod& (0+255),b
  5403   00171A  0E00               	movlw	0
  5404   00171C  6F68               	movwf	(___flmul@prod+1)& (0+255),b
  5405   00171E  0E80               	movlw	128
  5406   001720  6F69               	movwf	(___flmul@prod+2)& (0+255),b
  5407   001722  0E7F               	movlw	127
  5408   001724  6F6A               	movwf	(___flmul@prod+3)& (0+255),b
  5409   001726  EFC3  F00B         	goto	l4464
  5410   00172A                     l4452:
  5411                           
  5412                           ; BSR set to: 0
  5413   00172A  BF6C               	btfsc	(___flmul@temp+1)& (0+255),7,b
  5414   00172C  EFA2  F00B         	goto	u4880
  5415   001730  516C               	movf	(___flmul@temp+1)& (0+255),w,b
  5416   001732  E106               	bnz	u4881
  5417   001734  056B               	decf	___flmul@temp& (0+255),w,b
  5418   001736  B0D8               	btfsc	status,0,c
  5419   001738  EFA0  F00B         	goto	u4881
  5420   00173C  EFA2  F00B         	goto	u4880
  5421   001740                     u4881:
  5422   001740  EFAE  F00B         	goto	l1088
  5423   001744                     u4880:
  5424   001744                     
  5425                           ; BSR set to: 0
  5426   001744  0E00               	movlw	0
  5427   001746  6F67               	movwf	___flmul@prod& (0+255),b
  5428   001748  0E00               	movlw	0
  5429   00174A  6F68               	movwf	(___flmul@prod+1)& (0+255),b
  5430   00174C  0E00               	movlw	0
  5431   00174E  6F69               	movwf	(___flmul@prod+2)& (0+255),b
  5432   001750  0E00               	movlw	0
  5433   001752  6F6A               	movwf	(___flmul@prod+3)& (0+255),b
  5434   001754  0E00               	movlw	0
  5435   001756  6F60               	movwf	___flmul@sign& (0+255),b
  5436   001758  EFC3  F00B         	goto	l4464
  5437   00175C                     l1088:
  5438                           
  5439                           ; BSR set to: 0
  5440   00175C  C06B  F066         	movff	___flmul@temp,___flmul@bexp
  5441   001760                     
  5442                           ; BSR set to: 0
  5443   001760  0EFF               	movlw	255
  5444   001762  1767               	andwf	___flmul@prod& (0+255),f,b
  5445   001764  0EFF               	movlw	255
  5446   001766  1768               	andwf	(___flmul@prod+1)& (0+255),f,b
  5447   001768  0E7F               	movlw	127
  5448   00176A  1769               	andwf	(___flmul@prod+2)& (0+255),f,b
  5449   00176C  0E00               	movlw	0
  5450   00176E  176A               	andwf	(___flmul@prod+3)& (0+255),f,b
  5451   001770                     
  5452                           ; BSR set to: 0
  5453   001770  A166               	btfss	___flmul@bexp& (0+255),0,b
  5454   001772  EFBD  F00B         	goto	u4891
  5455   001776  EFBF  F00B         	goto	u4890
  5456   00177A                     u4891:
  5457   00177A  EFC0  F00B         	goto	l4462
  5458   00177E                     u4890:
  5459   00177E                     
  5460                           ; BSR set to: 0
  5461   00177E  8F69               	bsf	(___flmul@prod+2)& (0+255),7,b
  5462   001780                     l4462:
  5463                           
  5464                           ; BSR set to: 0
  5465   001780  90D8               	bcf	status,0,c
  5466   001782  3166               	rrcf	___flmul@bexp& (0+255),w,b
  5467   001784  6F6A               	movwf	(___flmul@prod+3)& (0+255),b
  5468   001786                     l4464:
  5469                           
  5470                           ; BSR set to: 0
  5471   001786  5160               	movf	___flmul@sign& (0+255),w,b
  5472   001788  136A               	iorwf	(___flmul@prod+3)& (0+255),f,b
  5473   00178A                     
  5474                           ; BSR set to: 0
  5475   00178A  C067  F033         	movff	___flmul@prod,?___flmul
  5476   00178E  C068  F034         	movff	___flmul@prod+1,?___flmul+1
  5477   001792  C069  F035         	movff	___flmul@prod+2,?___flmul+2
  5478   001796  C06A  F036         	movff	___flmul@prod+3,?___flmul+3
  5479   00179A                     l1075:
  5480                           
  5481                           ; BSR set to: 0
  5482   00179A  0012               	return		;funcret
  5483   00179C                     __end_of___flmul:
  5484                           	callstack 0
  5485                           
  5486 ;; *************** function ___fldiv *****************
  5487 ;; Defined at:
  5488 ;;		line 11 in file "D:\MPLAB_COMPILER\pic\sources\c99\common\sprcdiv.c"
  5489 ;; Parameters:    Size  Location     Type
  5490 ;;  b               4   25[COMRAM] unsigned char 
  5491 ;;  a               4   29[COMRAM] unsigned char 
  5492 ;; Auto vars:     Size  Location     Type
  5493 ;;  grs             4   44[COMRAM] unsigned long 
  5494 ;;  rem             4   37[COMRAM] unsigned long 
  5495 ;;  new_exp         2   42[COMRAM] short 
  5496 ;;  aexp            1   49[COMRAM] unsigned char 
  5497 ;;  bexp            1   48[COMRAM] unsigned char 
  5498 ;;  sign            1   41[COMRAM] unsigned char 
  5499 ;; Return value:  Size  Location     Type
  5500 ;;                  4   25[COMRAM] unsigned char 
  5501 ;; Registers used:
  5502 ;;		wreg, status,2, status,0
  5503 ;; Tracked objects:
  5504 ;;		On entry : 0/0
  5505 ;;		On exit  : 0/0
  5506 ;;		Unchanged: 0/0
  5507 ;; Data sizes:     COMRAM   BANK0   BANK1   BANK2   BANK3   BANK4   BANK5   BANK6   BANK7   BANK8   BANK9  BANK10  BANK1
      +1  BANK12  BANK13
  5508 ;;      Params:         8       0       0       0       0       0       0       0       0       0       0       0       
      +0       0       0
  5509 ;;      Locals:        13       0       0       0       0       0       0       0       0       0       0       0       
      +0       0       0
  5510 ;;      Temps:          4       0       0       0       0       0       0       0       0       0       0       0       
      +0       0       0
  5511 ;;      Totals:        25       0       0       0       0       0       0       0       0       0       0       0       
      +0       0       0
  5512 ;;Total ram usage:       25 bytes
  5513 ;; Hardware stack levels used: 1
  5514 ;; Hardware stack levels required when called: 7
  5515 ;; This function calls:
  5516 ;;		Nothing
  5517 ;; This function is called by:
  5518 ;;		_detect_color
  5519 ;; This function uses a non-reentrant model
  5520 ;;
  5521                           
  5522                           	psect	text25
  5523   00179C                     __ptext25:
  5524                           	callstack 0
  5525   00179C                     ___fldiv:
  5526                           	callstack 22
  5527   00179C  501D               	movf	(___fldiv@b+3)^0,w,c
  5528   00179E  0B80               	andlw	128
  5529   0017A0  6E2A               	movwf	___fldiv@sign^0,c
  5530   0017A2  501D               	movf	(___fldiv@b+3)^0,w,c
  5531   0017A4  241D               	addwf	(___fldiv@b+3)^0,w,c
  5532   0017A6  6E31               	movwf	___fldiv@bexp^0,c
  5533   0017A8  AE1C               	btfss	(___fldiv@b+2)^0,7,c
  5534   0017AA  EFD9  F00B         	goto	u4481
  5535   0017AE  EFDB  F00B         	goto	u4480
  5536   0017B2                     u4481:
  5537   0017B2  EFDC  F00B         	goto	l4208
  5538   0017B6                     u4480:
  5539   0017B6  8031               	bsf	___fldiv@bexp^0,0,c
  5540   0017B8                     l4208:
  5541   0017B8  5031               	movf	___fldiv@bexp^0,w,c
  5542   0017BA  B4D8               	btfsc	status,2,c
  5543   0017BC  EFE2  F00B         	goto	u4491
  5544   0017C0  EFE4  F00B         	goto	u4490
  5545   0017C4                     u4491:
  5546   0017C4  EFF9  F00B         	goto	l4218
  5547   0017C8                     u4490:
  5548   0017C8  2831               	incf	___fldiv@bexp^0,w,c
  5549   0017CA  A4D8               	btfss	status,2,c
  5550   0017CC  EFEA  F00B         	goto	u4501
  5551   0017D0  EFEC  F00B         	goto	u4500
  5552   0017D4                     u4501:
  5553   0017D4  EFF4  F00B         	goto	l4214
  5554   0017D8                     u4500:
  5555   0017D8  0E00               	movlw	0
  5556   0017DA  6E1A               	movwf	___fldiv@b^0,c
  5557   0017DC  0E00               	movlw	0
  5558   0017DE  6E1B               	movwf	(___fldiv@b+1)^0,c
  5559   0017E0  0E00               	movlw	0
  5560   0017E2  6E1C               	movwf	(___fldiv@b+2)^0,c
  5561   0017E4  0E00               	movlw	0
  5562   0017E6  6E1D               	movwf	(___fldiv@b+3)^0,c
  5563   0017E8                     l4214:
  5564   0017E8  8E1C               	bsf	(___fldiv@b+2)^0,7,c
  5565   0017EA  0E00               	movlw	0
  5566   0017EC  6E1D               	movwf	(___fldiv@b+3)^0,c
  5567   0017EE  EF01  F00C         	goto	l4220
  5568   0017F2                     l4218:
  5569   0017F2  0E00               	movlw	0
  5570   0017F4  6E1A               	movwf	___fldiv@b^0,c
  5571   0017F6  0E00               	movlw	0
  5572   0017F8  6E1B               	movwf	(___fldiv@b+1)^0,c
  5573   0017FA  0E00               	movlw	0
  5574   0017FC  6E1C               	movwf	(___fldiv@b+2)^0,c
  5575   0017FE  0E00               	movlw	0
  5576   001800  6E1D               	movwf	(___fldiv@b+3)^0,c
  5577   001802                     l4220:
  5578   001802  5021               	movf	(___fldiv@a+3)^0,w,c
  5579   001804  0B80               	andlw	128
  5580   001806  1A2A               	xorwf	___fldiv@sign^0,f,c
  5581   001808  5021               	movf	(___fldiv@a+3)^0,w,c
  5582   00180A  2421               	addwf	(___fldiv@a+3)^0,w,c
  5583   00180C  6E32               	movwf	___fldiv@aexp^0,c
  5584   00180E  AE20               	btfss	(___fldiv@a+2)^0,7,c
  5585   001810  EF0C  F00C         	goto	u4511
  5586   001814  EF0E  F00C         	goto	u4510
  5587   001818                     u4511:
  5588   001818  EF0F  F00C         	goto	l4228
  5589   00181C                     u4510:
  5590   00181C  8032               	bsf	___fldiv@aexp^0,0,c
  5591   00181E                     l4228:
  5592   00181E  5032               	movf	___fldiv@aexp^0,w,c
  5593   001820  B4D8               	btfsc	status,2,c
  5594   001822  EF15  F00C         	goto	u4521
  5595   001826  EF17  F00C         	goto	u4520
  5596   00182A                     u4521:
  5597   00182A  EF2C  F00C         	goto	l4238
  5598   00182E                     u4520:
  5599   00182E  2832               	incf	___fldiv@aexp^0,w,c
  5600   001830  A4D8               	btfss	status,2,c
  5601   001832  EF1D  F00C         	goto	u4531
  5602   001836  EF1F  F00C         	goto	u4530
  5603   00183A                     u4531:
  5604   00183A  EF27  F00C         	goto	l4234
  5605   00183E                     u4530:
  5606   00183E  0E00               	movlw	0
  5607   001840  6E1E               	movwf	___fldiv@a^0,c
  5608   001842  0E00               	movlw	0
  5609   001844  6E1F               	movwf	(___fldiv@a+1)^0,c
  5610   001846  0E00               	movlw	0
  5611   001848  6E20               	movwf	(___fldiv@a+2)^0,c
  5612   00184A  0E00               	movlw	0
  5613   00184C  6E21               	movwf	(___fldiv@a+3)^0,c
  5614   00184E                     l4234:
  5615   00184E  8E20               	bsf	(___fldiv@a+2)^0,7,c
  5616   001850  0E00               	movlw	0
  5617   001852  6E21               	movwf	(___fldiv@a+3)^0,c
  5618   001854  EF34  F00C         	goto	l4240
  5619   001858                     l4238:
  5620   001858  0E00               	movlw	0
  5621   00185A  6E1E               	movwf	___fldiv@a^0,c
  5622   00185C  0E00               	movlw	0
  5623   00185E  6E1F               	movwf	(___fldiv@a+1)^0,c
  5624   001860  0E00               	movlw	0
  5625   001862  6E20               	movwf	(___fldiv@a+2)^0,c
  5626   001864  0E00               	movlw	0
  5627   001866  6E21               	movwf	(___fldiv@a+3)^0,c
  5628   001868                     l4240:
  5629   001868  501E               	movf	___fldiv@a^0,w,c
  5630   00186A  101F               	iorwf	(___fldiv@a+1)^0,w,c
  5631   00186C  1020               	iorwf	(___fldiv@a+2)^0,w,c
  5632   00186E  1021               	iorwf	(___fldiv@a+3)^0,w,c
  5633   001870  A4D8               	btfss	status,2,c
  5634   001872  EF3D  F00C         	goto	u4541
  5635   001876  EF3F  F00C         	goto	u4540
  5636   00187A                     u4541:
  5637   00187A  EF57  F00C         	goto	l4252
  5638   00187E                     u4540:
  5639   00187E  0E00               	movlw	0
  5640   001880  6E1A               	movwf	___fldiv@b^0,c
  5641   001882  0E00               	movlw	0
  5642   001884  6E1B               	movwf	(___fldiv@b+1)^0,c
  5643   001886  0E00               	movlw	0
  5644   001888  6E1C               	movwf	(___fldiv@b+2)^0,c
  5645   00188A  0E00               	movlw	0
  5646   00188C  6E1D               	movwf	(___fldiv@b+3)^0,c
  5647   00188E  0E80               	movlw	128
  5648   001890  121C               	iorwf	(___fldiv@b+2)^0,f,c
  5649   001892  0E7F               	movlw	127
  5650   001894  121D               	iorwf	(___fldiv@b+3)^0,f,c
  5651   001896                     l4246:
  5652   001896  502A               	movf	___fldiv@sign^0,w,c
  5653   001898  121D               	iorwf	(___fldiv@b+3)^0,f,c
  5654   00189A  C01A  F01A         	movff	___fldiv@b,?___fldiv
  5655   00189E  C01B  F01B         	movff	___fldiv@b+1,?___fldiv+1
  5656   0018A2  C01C  F01C         	movff	___fldiv@b+2,?___fldiv+2
  5657   0018A6  C01D  F01D         	movff	___fldiv@b+3,?___fldiv+3
  5658   0018AA  EF9A  F00D         	goto	l1039
  5659   0018AE                     l4252:
  5660   0018AE  5031               	movf	___fldiv@bexp^0,w,c
  5661   0018B0  A4D8               	btfss	status,2,c
  5662   0018B2  EF5D  F00C         	goto	u4551
  5663   0018B6  EF5F  F00C         	goto	u4550
  5664   0018BA                     u4551:
  5665   0018BA  EF69  F00C         	goto	l4260
  5666   0018BE                     u4550:
  5667   0018BE  0E00               	movlw	0
  5668   0018C0  6E1A               	movwf	?___fldiv^0,c
  5669   0018C2  0E00               	movlw	0
  5670   0018C4  6E1B               	movwf	(?___fldiv+1)^0,c
  5671   0018C6  0E00               	movlw	0
  5672   0018C8  6E1C               	movwf	(?___fldiv+2)^0,c
  5673   0018CA  0E00               	movlw	0
  5674   0018CC  6E1D               	movwf	(?___fldiv+3)^0,c
  5675   0018CE  EF9A  F00D         	goto	l1039
  5676   0018D2                     l4260:
  5677   0018D2  5032               	movf	___fldiv@aexp^0,w,c
  5678   0018D4  C031  F022         	movff	___fldiv@bexp,??___fldiv
  5679   0018D8  6A23               	clrf	(??___fldiv+1)^0,c
  5680   0018DA  5E22               	subwf	??___fldiv^0,f,c
  5681   0018DC  0E00               	movlw	0
  5682   0018DE  5A23               	subwfb	(??___fldiv+1)^0,f,c
  5683   0018E0  0E7F               	movlw	127
  5684   0018E2  2422               	addwf	??___fldiv^0,w,c
  5685   0018E4  6E2B               	movwf	___fldiv@new_exp^0,c
  5686   0018E6  0E00               	movlw	0
  5687   0018E8  2023               	addwfc	(??___fldiv+1)^0,w,c
  5688   0018EA  6E2C               	movwf	(___fldiv@new_exp+1)^0,c
  5689   0018EC  C01A  F026         	movff	___fldiv@b,___fldiv@rem
  5690   0018F0  C01B  F027         	movff	___fldiv@b+1,___fldiv@rem+1
  5691   0018F4  C01C  F028         	movff	___fldiv@b+2,___fldiv@rem+2
  5692   0018F8  C01D  F029         	movff	___fldiv@b+3,___fldiv@rem+3
  5693   0018FC  0E00               	movlw	0
  5694   0018FE  6E1A               	movwf	___fldiv@b^0,c
  5695   001900  0E00               	movlw	0
  5696   001902  6E1B               	movwf	(___fldiv@b+1)^0,c
  5697   001904  0E00               	movlw	0
  5698   001906  6E1C               	movwf	(___fldiv@b+2)^0,c
  5699   001908  0E00               	movlw	0
  5700   00190A  6E1D               	movwf	(___fldiv@b+3)^0,c
  5701   00190C  0E00               	movlw	0
  5702   00190E  6E2D               	movwf	___fldiv@grs^0,c
  5703   001910  0E00               	movlw	0
  5704   001912  6E2E               	movwf	(___fldiv@grs+1)^0,c
  5705   001914  0E00               	movlw	0
  5706   001916  6E2F               	movwf	(___fldiv@grs+2)^0,c
  5707   001918  0E00               	movlw	0
  5708   00191A  6E30               	movwf	(___fldiv@grs+3)^0,c
  5709   00191C  0E00               	movlw	0
  5710   00191E  6E32               	movwf	___fldiv@aexp^0,c
  5711   001920  EFCA  F00C         	goto	l1041
  5712   001924                     l4270:
  5713   001924  5032               	movf	___fldiv@aexp^0,w,c
  5714   001926  B4D8               	btfsc	status,2,c
  5715   001928  EF98  F00C         	goto	u4561
  5716   00192C  EF9A  F00C         	goto	u4560
  5717   001930                     u4561:
  5718   001930  EFB1  F00C         	goto	l4278
  5719   001934                     u4560:
  5720   001934  90D8               	bcf	status,0,c
  5721   001936  3626               	rlcf	___fldiv@rem^0,f,c
  5722   001938  3627               	rlcf	(___fldiv@rem+1)^0,f,c
  5723   00193A  3628               	rlcf	(___fldiv@rem+2)^0,f,c
  5724   00193C  3629               	rlcf	(___fldiv@rem+3)^0,f,c
  5725   00193E  90D8               	bcf	status,0,c
  5726   001940  361A               	rlcf	___fldiv@b^0,f,c
  5727   001942  361B               	rlcf	(___fldiv@b+1)^0,f,c
  5728   001944  361C               	rlcf	(___fldiv@b+2)^0,f,c
  5729   001946  361D               	rlcf	(___fldiv@b+3)^0,f,c
  5730   001948  AE30               	btfss	(___fldiv@grs+3)^0,7,c
  5731   00194A  EFA9  F00C         	goto	u4571
  5732   00194E  EFAB  F00C         	goto	u4570
  5733   001952                     u4571:
  5734   001952  EFAC  F00C         	goto	l1044
  5735   001956                     u4570:
  5736   001956  801A               	bsf	___fldiv@b^0,0,c
  5737   001958                     l1044:
  5738   001958  90D8               	bcf	status,0,c
  5739   00195A  362D               	rlcf	___fldiv@grs^0,f,c
  5740   00195C  362E               	rlcf	(___fldiv@grs+1)^0,f,c
  5741   00195E  362F               	rlcf	(___fldiv@grs+2)^0,f,c
  5742   001960  3630               	rlcf	(___fldiv@grs+3)^0,f,c
  5743   001962                     l4278:
  5744   001962  501E               	movf	___fldiv@a^0,w,c
  5745   001964  5C26               	subwf	___fldiv@rem^0,w,c
  5746   001966  501F               	movf	(___fldiv@a+1)^0,w,c
  5747   001968  5827               	subwfb	(___fldiv@rem+1)^0,w,c
  5748   00196A  5020               	movf	(___fldiv@a+2)^0,w,c
  5749   00196C  5828               	subwfb	(___fldiv@rem+2)^0,w,c
  5750   00196E  5021               	movf	(___fldiv@a+3)^0,w,c
  5751   001970  5829               	subwfb	(___fldiv@rem+3)^0,w,c
  5752   001972  A0D8               	btfss	status,0,c
  5753   001974  EFBE  F00C         	goto	u4581
  5754   001978  EFC0  F00C         	goto	u4580
  5755   00197C                     u4581:
  5756   00197C  EFC9  F00C         	goto	l4284
  5757   001980                     u4580:
  5758   001980  8C30               	bsf	(___fldiv@grs+3)^0,6,c
  5759   001982  501E               	movf	___fldiv@a^0,w,c
  5760   001984  5E26               	subwf	___fldiv@rem^0,f,c
  5761   001986  501F               	movf	(___fldiv@a+1)^0,w,c
  5762   001988  5A27               	subwfb	(___fldiv@rem+1)^0,f,c
  5763   00198A  5020               	movf	(___fldiv@a+2)^0,w,c
  5764   00198C  5A28               	subwfb	(___fldiv@rem+2)^0,f,c
  5765   00198E  5021               	movf	(___fldiv@a+3)^0,w,c
  5766   001990  5A29               	subwfb	(___fldiv@rem+3)^0,f,c
  5767   001992                     l4284:
  5768   001992  2A32               	incf	___fldiv@aexp^0,f,c
  5769   001994                     l1041:
  5770   001994  0E19               	movlw	25
  5771   001996  6432               	cpfsgt	___fldiv@aexp^0,c
  5772   001998  EFD0  F00C         	goto	u4591
  5773   00199C  EFD2  F00C         	goto	u4590
  5774   0019A0                     u4591:
  5775   0019A0  EF92  F00C         	goto	l4270
  5776   0019A4                     u4590:
  5777   0019A4  5026               	movf	___fldiv@rem^0,w,c
  5778   0019A6  1027               	iorwf	(___fldiv@rem+1)^0,w,c
  5779   0019A8  1028               	iorwf	(___fldiv@rem+2)^0,w,c
  5780   0019AA  1029               	iorwf	(___fldiv@rem+3)^0,w,c
  5781   0019AC  B4D8               	btfsc	status,2,c
  5782   0019AE  EFDB  F00C         	goto	u4601
  5783   0019B2  EFDD  F00C         	goto	u4600
  5784   0019B6                     u4601:
  5785   0019B6  EFF5  F00C         	goto	l4296
  5786   0019BA                     u4600:
  5787   0019BA  802D               	bsf	___fldiv@grs^0,0,c
  5788   0019BC  EFF5  F00C         	goto	l4296
  5789   0019C0                     l4290:
  5790   0019C0  90D8               	bcf	status,0,c
  5791   0019C2  361A               	rlcf	___fldiv@b^0,f,c
  5792   0019C4  361B               	rlcf	(___fldiv@b+1)^0,f,c
  5793   0019C6  361C               	rlcf	(___fldiv@b+2)^0,f,c
  5794   0019C8  361D               	rlcf	(___fldiv@b+3)^0,f,c
  5795   0019CA  AE30               	btfss	(___fldiv@grs+3)^0,7,c
  5796   0019CC  EFEA  F00C         	goto	u4611
  5797   0019D0  EFEC  F00C         	goto	u4610
  5798   0019D4                     u4611:
  5799   0019D4  EFED  F00C         	goto	l1050
  5800   0019D8                     u4610:
  5801   0019D8  801A               	bsf	___fldiv@b^0,0,c
  5802   0019DA                     l1050:
  5803   0019DA  90D8               	bcf	status,0,c
  5804   0019DC  362D               	rlcf	___fldiv@grs^0,f,c
  5805   0019DE  362E               	rlcf	(___fldiv@grs+1)^0,f,c
  5806   0019E0  362F               	rlcf	(___fldiv@grs+2)^0,f,c
  5807   0019E2  3630               	rlcf	(___fldiv@grs+3)^0,f,c
  5808   0019E4  062B               	decf	___fldiv@new_exp^0,f,c
  5809   0019E6  A0D8               	btfss	status,0,c
  5810   0019E8  062C               	decf	(___fldiv@new_exp+1)^0,f,c
  5811   0019EA                     l4296:
  5812   0019EA  AE1C               	btfss	(___fldiv@b+2)^0,7,c
  5813   0019EC  EFFA  F00C         	goto	u4621
  5814   0019F0  EFFC  F00C         	goto	u4620
  5815   0019F4                     u4621:
  5816   0019F4  EFE0  F00C         	goto	l4290
  5817   0019F8                     u4620:
  5818   0019F8  0E00               	movlw	0
  5819   0019FA  6E32               	movwf	___fldiv@aexp^0,c
  5820   0019FC  AE30               	btfss	(___fldiv@grs+3)^0,7,c
  5821   0019FE  EF03  F00D         	goto	u4631
  5822   001A02  EF05  F00D         	goto	u4630
  5823   001A06                     u4631:
  5824   001A06  EF29  F00D         	goto	l1052
  5825   001A0A                     u4630:
  5826   001A0A  0EFF               	movlw	255
  5827   001A0C  142D               	andwf	___fldiv@grs^0,w,c
  5828   001A0E  6E22               	movwf	??___fldiv^0,c
  5829   001A10  0EFF               	movlw	255
  5830   001A12  142E               	andwf	(___fldiv@grs+1)^0,w,c
  5831   001A14  6E23               	movwf	(??___fldiv+1)^0,c
  5832   001A16  0EFF               	movlw	255
  5833   001A18  142F               	andwf	(___fldiv@grs+2)^0,w,c
  5834   001A1A  6E24               	movwf	(??___fldiv+2)^0,c
  5835   001A1C  0E7F               	movlw	127
  5836   001A1E  1430               	andwf	(___fldiv@grs+3)^0,w,c
  5837   001A20  6E25               	movwf	(??___fldiv+3)^0,c
  5838   001A22  5022               	movf	??___fldiv^0,w,c
  5839   001A24  1023               	iorwf	(??___fldiv+1)^0,w,c
  5840   001A26  1024               	iorwf	(??___fldiv+2)^0,w,c
  5841   001A28  1025               	iorwf	(??___fldiv+3)^0,w,c
  5842   001A2A  B4D8               	btfsc	status,2,c
  5843   001A2C  EF1A  F00D         	goto	u4641
  5844   001A30  EF1C  F00D         	goto	u4640
  5845   001A34                     u4641:
  5846   001A34  EF20  F00D         	goto	l1053
  5847   001A38                     u4640:
  5848   001A38                     l4304:
  5849   001A38  0E01               	movlw	1
  5850   001A3A  6E32               	movwf	___fldiv@aexp^0,c
  5851   001A3C  EF29  F00D         	goto	l1052
  5852   001A40                     l1053:
  5853   001A40  A01A               	btfss	___fldiv@b^0,0,c
  5854   001A42  EF25  F00D         	goto	u4651
  5855   001A46  EF27  F00D         	goto	u4650
  5856   001A4A                     u4651:
  5857   001A4A  EF29  F00D         	goto	l1052
  5858   001A4E                     u4650:
  5859   001A4E  EF1C  F00D         	goto	l4304
  5860   001A52                     l1052:
  5861   001A52  5032               	movf	___fldiv@aexp^0,w,c
  5862   001A54  B4D8               	btfsc	status,2,c
  5863   001A56  EF2F  F00D         	goto	u4661
  5864   001A5A  EF31  F00D         	goto	u4660
  5865   001A5E                     u4661:
  5866   001A5E  EF55  F00D         	goto	l4316
  5867   001A62                     u4660:
  5868   001A62  0E01               	movlw	1
  5869   001A64  261A               	addwf	___fldiv@b^0,f,c
  5870   001A66  0E00               	movlw	0
  5871   001A68  221B               	addwfc	(___fldiv@b+1)^0,f,c
  5872   001A6A  221C               	addwfc	(___fldiv@b+2)^0,f,c
  5873   001A6C  221D               	addwfc	(___fldiv@b+3)^0,f,c
  5874   001A6E  A01D               	btfss	(___fldiv@b+3)^0,0,c
  5875   001A70  EF3C  F00D         	goto	u4671
  5876   001A74  EF3E  F00D         	goto	u4670
  5877   001A78                     u4671:
  5878   001A78  EF55  F00D         	goto	l4316
  5879   001A7C                     u4670:
  5880   001A7C  C01A  F022         	movff	___fldiv@b,??___fldiv
  5881   001A80  C01B  F023         	movff	___fldiv@b+1,??___fldiv+1
  5882   001A84  C01C  F024         	movff	___fldiv@b+2,??___fldiv+2
  5883   001A88  C01D  F025         	movff	___fldiv@b+3,??___fldiv+3
  5884   001A8C  3425               	rlcf	(??___fldiv+3)^0,w,c
  5885   001A8E  3225               	rrcf	(??___fldiv+3)^0,f,c
  5886   001A90  3224               	rrcf	(??___fldiv+2)^0,f,c
  5887   001A92  3223               	rrcf	(??___fldiv+1)^0,f,c
  5888   001A94  3222               	rrcf	??___fldiv^0,f,c
  5889   001A96  C022  F01A         	movff	??___fldiv,___fldiv@b
  5890   001A9A  C023  F01B         	movff	??___fldiv+1,___fldiv@b+1
  5891   001A9E  C024  F01C         	movff	??___fldiv+2,___fldiv@b+2
  5892   001AA2  C025  F01D         	movff	??___fldiv+3,___fldiv@b+3
  5893   001AA6  4A2B               	infsnz	___fldiv@new_exp^0,f,c
  5894   001AA8  2A2C               	incf	(___fldiv@new_exp+1)^0,f,c
  5895   001AAA                     l4316:
  5896   001AAA  BE2C               	btfsc	(___fldiv@new_exp+1)^0,7,c
  5897   001AAC  EF60  F00D         	goto	u4681
  5898   001AB0  502C               	movf	(___fldiv@new_exp+1)^0,w,c
  5899   001AB2  E108               	bnz	u4680
  5900   001AB4  282B               	incf	___fldiv@new_exp^0,w,c
  5901   001AB6  A0D8               	btfss	status,0,c
  5902   001AB8  EF60  F00D         	goto	u4681
  5903   001ABC  EF62  F00D         	goto	u4680
  5904   001AC0                     u4681:
  5905   001AC0  EF6D  F00D         	goto	l4320
  5906   001AC4                     u4680:
  5907   001AC4  0E00               	movlw	0
  5908   001AC6  6E2C               	movwf	(___fldiv@new_exp+1)^0,c
  5909   001AC8  682B               	setf	___fldiv@new_exp^0,c
  5910   001ACA  0E00               	movlw	0
  5911   001ACC  6E1A               	movwf	___fldiv@b^0,c
  5912   001ACE  0E00               	movlw	0
  5913   001AD0  6E1B               	movwf	(___fldiv@b+1)^0,c
  5914   001AD2  0E00               	movlw	0
  5915   001AD4  6E1C               	movwf	(___fldiv@b+2)^0,c
  5916   001AD6  0E00               	movlw	0
  5917   001AD8  6E1D               	movwf	(___fldiv@b+3)^0,c
  5918   001ADA                     l4320:
  5919   001ADA  BE2C               	btfsc	(___fldiv@new_exp+1)^0,7,c
  5920   001ADC  EF7A  F00D         	goto	u4690
  5921   001AE0  502C               	movf	(___fldiv@new_exp+1)^0,w,c
  5922   001AE2  E106               	bnz	u4691
  5923   001AE4  042B               	decf	___fldiv@new_exp^0,w,c
  5924   001AE6  B0D8               	btfsc	status,0,c
  5925   001AE8  EF78  F00D         	goto	u4691
  5926   001AEC  EF7A  F00D         	goto	u4690
  5927   001AF0                     u4691:
  5928   001AF0  EF88  F00D         	goto	l4324
  5929   001AF4                     u4690:
  5930   001AF4  0E00               	movlw	0
  5931   001AF6  6E2C               	movwf	(___fldiv@new_exp+1)^0,c
  5932   001AF8  0E00               	movlw	0
  5933   001AFA  6E2B               	movwf	___fldiv@new_exp^0,c
  5934   001AFC  0E00               	movlw	0
  5935   001AFE  6E1A               	movwf	___fldiv@b^0,c
  5936   001B00  0E00               	movlw	0
  5937   001B02  6E1B               	movwf	(___fldiv@b+1)^0,c
  5938   001B04  0E00               	movlw	0
  5939   001B06  6E1C               	movwf	(___fldiv@b+2)^0,c
  5940   001B08  0E00               	movlw	0
  5941   001B0A  6E1D               	movwf	(___fldiv@b+3)^0,c
  5942   001B0C  0E00               	movlw	0
  5943   001B0E  6E2A               	movwf	___fldiv@sign^0,c
  5944   001B10                     l4324:
  5945   001B10  C02B  F031         	movff	___fldiv@new_exp,___fldiv@bexp
  5946   001B14  A031               	btfss	___fldiv@bexp^0,0,c
  5947   001B16  EF8F  F00D         	goto	u4701
  5948   001B1A  EF91  F00D         	goto	u4700
  5949   001B1E                     u4701:
  5950   001B1E  EF94  F00D         	goto	l4330
  5951   001B22                     u4700:
  5952   001B22  8E1C               	bsf	(___fldiv@b+2)^0,7,c
  5953   001B24  EF95  F00D         	goto	l4332
  5954   001B28                     l4330:
  5955   001B28  9E1C               	bcf	(___fldiv@b+2)^0,7,c
  5956   001B2A                     l4332:
  5957   001B2A  90D8               	bcf	status,0,c
  5958   001B2C  3031               	rrcf	___fldiv@bexp^0,w,c
  5959   001B2E  6E1D               	movwf	(___fldiv@b+3)^0,c
  5960   001B30  EF4B  F00C         	goto	l4246
  5961   001B34                     l1039:
  5962   001B34  0012               	return		;funcret
  5963   001B36                     __end_of___fldiv:
  5964                           	callstack 0
  5965                           
  5966 ;; *************** function _color_click_init *****************
  5967 ;; Defined at:
  5968 ;;		line 6 in file "color.c"
  5969 ;; Parameters:    Size  Location     Type
  5970 ;;		None
  5971 ;; Auto vars:     Size  Location     Type
  5972 ;;		None
  5973 ;; Return value:  Size  Location     Type
  5974 ;;                  1    wreg      void 
  5975 ;; Registers used:
  5976 ;;		wreg, status,2, status,0, cstack
  5977 ;; Tracked objects:
  5978 ;;		On entry : 0/0
  5979 ;;		On exit  : 0/0
  5980 ;;		Unchanged: 0/0
  5981 ;; Data sizes:     COMRAM   BANK0   BANK1   BANK2   BANK3   BANK4   BANK5   BANK6   BANK7   BANK8   BANK9  BANK10  BANK1
      +1  BANK12  BANK13
  5982 ;;      Params:         0       0       0       0       0       0       0       0       0       0       0       0       
      +0       0       0
  5983 ;;      Locals:         0       0       0       0       0       0       0       0       0       0       0       0       
      +0       0       0
  5984 ;;      Temps:          1       0       0       0       0       0       0       0       0       0       0       0       
      +0       0       0
  5985 ;;      Totals:         1       0       0       0       0       0       0       0       0       0       0       0       
      +0       0       0
  5986 ;;Total ram usage:        1 bytes
  5987 ;; Hardware stack levels used: 1
  5988 ;; Hardware stack levels required when called: 10
  5989 ;; This function calls:
  5990 ;;		_I2C_2_Master_Init
  5991 ;;		_color_writetoaddr
  5992 ;; This function is called by:
  5993 ;;		_main
  5994 ;; This function uses a non-reentrant model
  5995 ;;
  5996                           
  5997                           	psect	text26
  5998   002EC8                     __ptext26:
  5999                           	callstack 0
  6000   002EC8                     _color_click_init:
  6001                           	callstack 20
  6002   002EC8                     
  6003                           ;color.c: 9:     I2C_2_Master_Init();
  6004   002EC8  ECD8  F017         	call	_I2C_2_Master_Init	;wreg free
  6005   002ECC                     
  6006                           ;color.c: 12:   color_writetoaddr(0x00, 0x01);
  6007   002ECC  0E01               	movlw	1
  6008   002ECE  6E0E               	movwf	color_writetoaddr@value^0,c
  6009   002ED0  0E00               	movlw	0
  6010   002ED2  EC75  F018         	call	_color_writetoaddr
  6011   002ED6                     
  6012                           ;color.c: 13:     _delay((unsigned long)((3)*(64000000/4000.0)));
  6013   002ED6  0E3F               	movlw	63
  6014   002ED8  6E10               	movwf	??_color_click_init^0,c
  6015   002EDA  0E55               	movlw	85
  6016   002EDC                     u5747:
  6017   002EDC  2EE8               	decfsz	wreg,f,c
  6018   002EDE  D7FE               	bra	u5747
  6019   002EE0  2E10               	decfsz	??_color_click_init^0,f,c
  6020   002EE2  D7FC               	bra	u5747
  6021   002EE4  F000               	nop	
  6022   002EE6                     
  6023                           ;color.c: 16:  color_writetoaddr(0x00, 0x03);
  6024   002EE6  0E03               	movlw	3
  6025   002EE8  6E0E               	movwf	color_writetoaddr@value^0,c
  6026   002EEA  0E00               	movlw	0
  6027   002EEC  EC75  F018         	call	_color_writetoaddr
  6028   002EF0                     
  6029                           ;color.c: 19:  color_writetoaddr(0x01, 0xD5);
  6030   002EF0  0ED5               	movlw	213
  6031   002EF2  6E0E               	movwf	color_writetoaddr@value^0,c
  6032   002EF4  0E01               	movlw	1
  6033   002EF6  EC75  F018         	call	_color_writetoaddr
  6034   002EFA  0012               	return		;funcret
  6035   002EFC                     __end_of_color_click_init:
  6036                           	callstack 0
  6037                           
  6038 ;; *************** function _I2C_2_Master_Init *****************
  6039 ;; Defined at:
  6040 ;;		line 4 in file "i2c.c"
  6041 ;; Parameters:    Size  Location     Type
  6042 ;;		None
  6043 ;; Auto vars:     Size  Location     Type
  6044 ;;		None
  6045 ;; Return value:  Size  Location     Type
  6046 ;;                  1    wreg      void 
  6047 ;; Registers used:
  6048 ;;		wreg, status,2
  6049 ;; Tracked objects:
  6050 ;;		On entry : 0/0
  6051 ;;		On exit  : 0/0
  6052 ;;		Unchanged: 0/0
  6053 ;; Data sizes:     COMRAM   BANK0   BANK1   BANK2   BANK3   BANK4   BANK5   BANK6   BANK7   BANK8   BANK9  BANK10  BANK1
      +1  BANK12  BANK13
  6054 ;;      Params:         0       0       0       0       0       0       0       0       0       0       0       0       
      +0       0       0
  6055 ;;      Locals:         0       0       0       0       0       0       0       0       0       0       0       0       
      +0       0       0
  6056 ;;      Temps:          0       0       0       0       0       0       0       0       0       0       0       0       
      +0       0       0
  6057 ;;      Totals:         0       0       0       0       0       0       0       0       0       0       0       0       
      +0       0       0
  6058 ;;Total ram usage:        0 bytes
  6059 ;; Hardware stack levels used: 1
  6060 ;; Hardware stack levels required when called: 7
  6061 ;; This function calls:
  6062 ;;		Nothing
  6063 ;; This function is called by:
  6064 ;;		_color_click_init
  6065 ;; This function uses a non-reentrant model
  6066 ;;
  6067                           
  6068                           	psect	text27
  6069   002FB0                     __ptext27:
  6070                           	callstack 0
  6071   002FB0                     _I2C_2_Master_Init:
  6072                           	callstack 22
  6073   002FB0                     
  6074                           ;i2c.c: 7:   SSP2CON1bits.SSPM= 0b1000;
  6075   002FB0  010E               	movlb	14	; () banked
  6076   002FB2  51D9               	movf	217,w,b	;volatile
  6077   002FB4  0BF0               	andlw	-16
  6078   002FB6  0908               	iorlw	8
  6079   002FB8  6FD9               	movwf	217,b	;volatile
  6080   002FBA                     
  6081                           ; BSR set to: 14
  6082                           ;i2c.c: 8:   SSP2CON1bits.SSPEN = 1;
  6083   002FBA  8BD9               	bsf	217,5,b	;volatile
  6084                           
  6085                           ;i2c.c: 9:   SSP2ADD = (64000000/(4*100000))-1;
  6086   002FBC  0E9F               	movlw	159
  6087   002FBE  6FD6               	movwf	214,b	;volatile
  6088   002FC0                     
  6089                           ; BSR set to: 14
  6090                           ;i2c.c: 12:   TRISDbits.TRISD5 = 1;
  6091   002FC0  8A84               	bsf	132,5,c	;volatile
  6092   002FC2                     
  6093                           ; BSR set to: 14
  6094                           ;i2c.c: 13:   TRISDbits.TRISD6 = 1;
  6095   002FC2  8C84               	bsf	132,6,c	;volatile
  6096   002FC4                     
  6097                           ; BSR set to: 14
  6098                           ;i2c.c: 14:   ANSELDbits.ANSELD5=0;
  6099   002FC4  9BA7               	bcf	167,5,b	;volatile
  6100   002FC6                     
  6101                           ; BSR set to: 14
  6102                           ;i2c.c: 15:   ANSELDbits.ANSELD6=0;
  6103   002FC6  9DA7               	bcf	167,6,b	;volatile
  6104                           
  6105                           ;i2c.c: 16:   SSP2DATPPS=0x1D;
  6106   002FC8  0E1D               	movlw	29
  6107   002FCA  6F1D               	movwf	29,b	;volatile
  6108                           
  6109                           ;i2c.c: 17:   SSP2CLKPPS=0x1E;
  6110   002FCC  0E1E               	movlw	30
  6111   002FCE  6F1C               	movwf	28,b	;volatile
  6112                           
  6113                           ;i2c.c: 18:   RD5PPS=0x1C;
  6114   002FD0  0E1C               	movlw	28
  6115   002FD2  6F6F               	movwf	111,b	;volatile
  6116                           
  6117                           ;i2c.c: 19:   RD6PPS=0x1B;
  6118   002FD4  0E1B               	movlw	27
  6119   002FD6  6F70               	movwf	112,b	;volatile
  6120   002FD8                     
  6121                           ; BSR set to: 14
  6122   002FD8  0012               	return		;funcret
  6123   002FDA                     __end_of_I2C_2_Master_Init:
  6124                           	callstack 0
  6125                           
  6126 ;; *************** function _WhiteLight *****************
  6127 ;; Defined at:
  6128 ;;		line 17 in file "LED_Buttons.c"
  6129 ;; Parameters:    Size  Location     Type
  6130 ;;		None
  6131 ;; Auto vars:     Size  Location     Type
  6132 ;;		None
  6133 ;; Return value:  Size  Location     Type
  6134 ;;                  1    wreg      void 
  6135 ;; Registers used:
  6136 ;;		None
  6137 ;; Tracked objects:
  6138 ;;		On entry : 0/0
  6139 ;;		On exit  : 0/0
  6140 ;;		Unchanged: 0/0
  6141 ;; Data sizes:     COMRAM   BANK0   BANK1   BANK2   BANK3   BANK4   BANK5   BANK6   BANK7   BANK8   BANK9  BANK10  BANK1
      +1  BANK12  BANK13
  6142 ;;      Params:         0       0       0       0       0       0       0       0       0       0       0       0       
      +0       0       0
  6143 ;;      Locals:         0       0       0       0       0       0       0       0       0       0       0       0       
      +0       0       0
  6144 ;;      Temps:          0       0       0       0       0       0       0       0       0       0       0       0       
      +0       0       0
  6145 ;;      Totals:         0       0       0       0       0       0       0       0       0       0       0       0       
      +0       0       0
  6146 ;;Total ram usage:        0 bytes
  6147 ;; Hardware stack levels used: 1
  6148 ;; Hardware stack levels required when called: 7
  6149 ;; This function calls:
  6150 ;;		Nothing
  6151 ;; This function is called by:
  6152 ;;		_main
  6153 ;; This function uses a non-reentrant model
  6154 ;;
  6155                           
  6156                           	psect	text28
  6157   003234                     __ptext28:
  6158                           	callstack 0
  6159   003234                     _WhiteLight:
  6160                           	callstack 23
  6161   003234                     
  6162                           ;LED_Buttons.c: 18:     LATGbits.LATG1 = 1;
  6163   003234  827F               	bsf	127,1,c	;volatile
  6164                           
  6165                           ;LED_Buttons.c: 19:     LATAbits.LATA4 = 1;
  6166   003236  8879               	bsf	121,4,c	;volatile
  6167                           
  6168                           ;LED_Buttons.c: 20:     LATFbits.LATF7 = 1;
  6169   003238  8E7E               	bsf	126,7,c	;volatile
  6170   00323A  0012               	return		;funcret
  6171   00323C                     __end_of_WhiteLight:
  6172                           	callstack 0
  6173                           
  6174 ;; *************** function _Update_RGBC *****************
  6175 ;; Defined at:
  6176 ;;		line 90 in file "color.c"
  6177 ;; Parameters:    Size  Location     Type
  6178 ;;  tempval         2   22[COMRAM] PTR struct RGB_val
  6179 ;;		 -> main@initial_color(8), 
  6180 ;; Auto vars:     Size  Location     Type
  6181 ;;		None
  6182 ;; Return value:  Size  Location     Type
  6183 ;;                  1    wreg      void 
  6184 ;; Registers used:
  6185 ;;		wreg, fsr2l, fsr2h, status,2, status,0, cstack
  6186 ;; Tracked objects:
  6187 ;;		On entry : 0/0
  6188 ;;		On exit  : 0/0
  6189 ;;		Unchanged: 0/0
  6190 ;; Data sizes:     COMRAM   BANK0   BANK1   BANK2   BANK3   BANK4   BANK5   BANK6   BANK7   BANK8   BANK9  BANK10  BANK1
      +1  BANK12  BANK13
  6191 ;;      Params:         2       0       0       0       0       0       0       0       0       0       0       0       
      +0       0       0
  6192 ;;      Locals:         0       0       0       0       0       0       0       0       0       0       0       0       
      +0       0       0
  6193 ;;      Temps:          0       0       0       0       0       0       0       0       0       0       0       0       
      +0       0       0
  6194 ;;      Totals:         2       0       0       0       0       0       0       0       0       0       0       0       
      +0       0       0
  6195 ;;Total ram usage:        2 bytes
  6196 ;; Hardware stack levels used: 1
  6197 ;; Hardware stack levels required when called: 10
  6198 ;; This function calls:
  6199 ;;		_color_read_Blue
  6200 ;;		_color_read_Clear
  6201 ;;		_color_read_Green
  6202 ;;		_color_read_Red
  6203 ;; This function is called by:
  6204 ;;		_main
  6205 ;; This function uses a non-reentrant model
  6206 ;;
  6207                           
  6208                           	psect	text29
  6209   002A96                     __ptext29:
  6210                           	callstack 0
  6211   002A96                     _Update_RGBC:
  6212                           	callstack 20
  6213   002A96                     
  6214                           ;color.c: 92:     tempval->R = color_read_Red();
  6215   002A96  ECCD  F015         	call	_color_read_Red	;wreg free
  6216   002A9A  C017  FFD9         	movff	Update_RGBC@tempval,fsr2l
  6217   002A9E  C018  FFDA         	movff	Update_RGBC@tempval+1,fsr2h
  6218   002AA2  C010  FFDE         	movff	?_color_read_Red,postinc2
  6219   002AA6  C011  FFDD         	movff	?_color_read_Red+1,postdec2
  6220                           
  6221                           ;color.c: 93:     tempval->G = color_read_Green();
  6222   002AAA  ECF5  F015         	call	_color_read_Green	;wreg free
  6223   002AAE  EE20 F002          	lfsr	2,2
  6224   002AB2  5017               	movf	Update_RGBC@tempval^0,w,c
  6225   002AB4  26D9               	addwf	fsr2l,f,c
  6226   002AB6  5018               	movf	(Update_RGBC@tempval+1)^0,w,c
  6227   002AB8  22DA               	addwfc	fsr2h,f,c
  6228   002ABA  C010  FFDE         	movff	?_color_read_Green,postinc2
  6229   002ABE  C011  FFDD         	movff	?_color_read_Green+1,postdec2
  6230                           
  6231                           ;color.c: 94:     tempval->B = color_read_Blue();
  6232   002AC2  EC45  F016         	call	_color_read_Blue	;wreg free
  6233   002AC6  EE20 F004          	lfsr	2,4
  6234   002ACA  5017               	movf	Update_RGBC@tempval^0,w,c
  6235   002ACC  26D9               	addwf	fsr2l,f,c
  6236   002ACE  5018               	movf	(Update_RGBC@tempval+1)^0,w,c
  6237   002AD0  22DA               	addwfc	fsr2h,f,c
  6238   002AD2  C010  FFDE         	movff	?_color_read_Blue,postinc2
  6239   002AD6  C011  FFDD         	movff	?_color_read_Blue+1,postdec2
  6240                           
  6241                           ;color.c: 95:     tempval->C = color_read_Clear();
  6242   002ADA  EC1D  F016         	call	_color_read_Clear	;wreg free
  6243   002ADE  EE20 F006          	lfsr	2,6
  6244   002AE2  5017               	movf	Update_RGBC@tempval^0,w,c
  6245   002AE4  26D9               	addwf	fsr2l,f,c
  6246   002AE6  5018               	movf	(Update_RGBC@tempval+1)^0,w,c
  6247   002AE8  22DA               	addwfc	fsr2h,f,c
  6248   002AEA  C010  FFDE         	movff	?_color_read_Clear,postinc2
  6249   002AEE  C011  FFDD         	movff	?_color_read_Clear+1,postdec2
  6250   002AF2  0012               	return		;funcret
  6251   002AF4                     __end_of_Update_RGBC:
  6252                           	callstack 0
  6253                           
  6254 ;; *************** function _color_read_Red *****************
  6255 ;; Defined at:
  6256 ;;		line 32 in file "color.c"
  6257 ;; Parameters:    Size  Location     Type
  6258 ;;		None
  6259 ;; Auto vars:     Size  Location     Type
  6260 ;;  tmp             2   20[COMRAM] unsigned int 
  6261 ;; Return value:  Size  Location     Type
  6262 ;;                  2   15[COMRAM] unsigned int 
  6263 ;; Registers used:
  6264 ;;		wreg, status,2, status,0, cstack
  6265 ;; Tracked objects:
  6266 ;;		On entry : 0/0
  6267 ;;		On exit  : 0/0
  6268 ;;		Unchanged: 0/0
  6269 ;; Data sizes:     COMRAM   BANK0   BANK1   BANK2   BANK3   BANK4   BANK5   BANK6   BANK7   BANK8   BANK9  BANK10  BANK1
      +1  BANK12  BANK13
  6270 ;;      Params:         2       0       0       0       0       0       0       0       0       0       0       0       
      +0       0       0
  6271 ;;      Locals:         2       0       0       0       0       0       0       0       0       0       0       0       
      +0       0       0
  6272 ;;      Temps:          3       0       0       0       0       0       0       0       0       0       0       0       
      +0       0       0
  6273 ;;      Totals:         7       0       0       0       0       0       0       0       0       0       0       0       
      +0       0       0
  6274 ;;Total ram usage:        7 bytes
  6275 ;; Hardware stack levels used: 1
  6276 ;; Hardware stack levels required when called: 9
  6277 ;; This function calls:
  6278 ;;		_I2C_2_Master_Read
  6279 ;;		_I2C_2_Master_RepStart
  6280 ;;		_I2C_2_Master_Start
  6281 ;;		_I2C_2_Master_Stop
  6282 ;;		_I2C_2_Master_Write
  6283 ;; This function is called by:
  6284 ;;		_Update_RGBC
  6285 ;; This function uses a non-reentrant model
  6286 ;;
  6287                           
  6288                           	psect	text30
  6289   002B9A                     __ptext30:
  6290                           	callstack 0
  6291   002B9A                     _color_read_Red:
  6292                           	callstack 20
  6293   002B9A                     
  6294                           ;color.c: 34:  unsigned int tmp;;color.c: 35:  I2C_2_Master_Start();
  6295   002B9A  EC0B  F019         	call	_I2C_2_Master_Start	;wreg free
  6296                           
  6297                           ;color.c: 36:  I2C_2_Master_Write(0x52 | 0x00);
  6298   002B9E  0E52               	movlw	82
  6299   002BA0  ECF5  F018         	call	_I2C_2_Master_Write
  6300                           
  6301                           ;color.c: 37:  I2C_2_Master_Write(0xA0 | 0x16);
  6302   002BA4  0EB6               	movlw	182
  6303   002BA6  ECF5  F018         	call	_I2C_2_Master_Write
  6304                           
  6305                           ;color.c: 38:  I2C_2_Master_RepStart();
  6306   002BAA  EC01  F019         	call	_I2C_2_Master_RepStart	;wreg free
  6307                           
  6308                           ;color.c: 39:  I2C_2_Master_Write(0x52 | 0x01);
  6309   002BAE  0E53               	movlw	83
  6310   002BB0  ECF5  F018         	call	_I2C_2_Master_Write
  6311                           
  6312                           ;color.c: 40:  tmp=I2C_2_Master_Read(1);
  6313   002BB4  0E01               	movlw	1
  6314   002BB6  EC23  F017         	call	_I2C_2_Master_Read
  6315   002BBA  6E12               	movwf	??_color_read_Red^0,c
  6316   002BBC  5012               	movf	??_color_read_Red^0,w,c
  6317   002BBE  6E15               	movwf	color_read_Red@tmp^0,c
  6318   002BC0  6A16               	clrf	(color_read_Red@tmp+1)^0,c
  6319                           
  6320                           ;color.c: 41:  tmp=tmp | (I2C_2_Master_Read(0)<<8);
  6321   002BC2  0E00               	movlw	0
  6322   002BC4  EC23  F017         	call	_I2C_2_Master_Read
  6323   002BC8  6E12               	movwf	??_color_read_Red^0,c
  6324   002BCA  5012               	movf	??_color_read_Red^0,w,c
  6325   002BCC  6E14               	movwf	(??_color_read_Red+2)^0,c
  6326   002BCE  6A13               	clrf	(??_color_read_Red+1)^0,c
  6327   002BD0  5015               	movf	color_read_Red@tmp^0,w,c
  6328   002BD2  1013               	iorwf	(??_color_read_Red+1)^0,w,c
  6329   002BD4  6E15               	movwf	color_read_Red@tmp^0,c
  6330   002BD6  5016               	movf	(color_read_Red@tmp+1)^0,w,c
  6331   002BD8  1014               	iorwf	(??_color_read_Red+2)^0,w,c
  6332   002BDA  6E16               	movwf	(color_read_Red@tmp+1)^0,c
  6333                           
  6334                           ;color.c: 42:  I2C_2_Master_Stop();
  6335   002BDC  EC06  F019         	call	_I2C_2_Master_Stop	;wreg free
  6336   002BE0                     
  6337                           ;color.c: 43:  return tmp;
  6338   002BE0  C015  F010         	movff	color_read_Red@tmp,?_color_read_Red
  6339   002BE4  C016  F011         	movff	color_read_Red@tmp+1,?_color_read_Red+1
  6340   002BE8  0012               	return		;funcret
  6341   002BEA                     __end_of_color_read_Red:
  6342                           	callstack 0
  6343                           
  6344 ;; *************** function _color_read_Green *****************
  6345 ;; Defined at:
  6346 ;;		line 46 in file "color.c"
  6347 ;; Parameters:    Size  Location     Type
  6348 ;;		None
  6349 ;; Auto vars:     Size  Location     Type
  6350 ;;  tmp             2   20[COMRAM] unsigned int 
  6351 ;; Return value:  Size  Location     Type
  6352 ;;                  2   15[COMRAM] unsigned int 
  6353 ;; Registers used:
  6354 ;;		wreg, status,2, status,0, cstack
  6355 ;; Tracked objects:
  6356 ;;		On entry : 0/0
  6357 ;;		On exit  : 0/0
  6358 ;;		Unchanged: 0/0
  6359 ;; Data sizes:     COMRAM   BANK0   BANK1   BANK2   BANK3   BANK4   BANK5   BANK6   BANK7   BANK8   BANK9  BANK10  BANK1
      +1  BANK12  BANK13
  6360 ;;      Params:         2       0       0       0       0       0       0       0       0       0       0       0       
      +0       0       0
  6361 ;;      Locals:         2       0       0       0       0       0       0       0       0       0       0       0       
      +0       0       0
  6362 ;;      Temps:          3       0       0       0       0       0       0       0       0       0       0       0       
      +0       0       0
  6363 ;;      Totals:         7       0       0       0       0       0       0       0       0       0       0       0       
      +0       0       0
  6364 ;;Total ram usage:        7 bytes
  6365 ;; Hardware stack levels used: 1
  6366 ;; Hardware stack levels required when called: 9
  6367 ;; This function calls:
  6368 ;;		_I2C_2_Master_Read
  6369 ;;		_I2C_2_Master_RepStart
  6370 ;;		_I2C_2_Master_Start
  6371 ;;		_I2C_2_Master_Stop
  6372 ;;		_I2C_2_Master_Write
  6373 ;; This function is called by:
  6374 ;;		_Update_RGBC
  6375 ;; This function uses a non-reentrant model
  6376 ;;
  6377                           
  6378                           	psect	text31
  6379   002BEA                     __ptext31:
  6380                           	callstack 0
  6381   002BEA                     _color_read_Green:
  6382                           	callstack 20
  6383   002BEA                     
  6384                           ;color.c: 48:  unsigned int tmp;;color.c: 49:  I2C_2_Master_Start();
  6385   002BEA  EC0B  F019         	call	_I2C_2_Master_Start	;wreg free
  6386                           
  6387                           ;color.c: 50:  I2C_2_Master_Write(0x52 | 0x00);
  6388   002BEE  0E52               	movlw	82
  6389   002BF0  ECF5  F018         	call	_I2C_2_Master_Write
  6390                           
  6391                           ;color.c: 51:  I2C_2_Master_Write(0xA0 | 0x18);
  6392   002BF4  0EB8               	movlw	184
  6393   002BF6  ECF5  F018         	call	_I2C_2_Master_Write
  6394                           
  6395                           ;color.c: 52:  I2C_2_Master_RepStart();
  6396   002BFA  EC01  F019         	call	_I2C_2_Master_RepStart	;wreg free
  6397                           
  6398                           ;color.c: 53:  I2C_2_Master_Write(0x52 | 0x01);
  6399   002BFE  0E53               	movlw	83
  6400   002C00  ECF5  F018         	call	_I2C_2_Master_Write
  6401                           
  6402                           ;color.c: 54:  tmp=I2C_2_Master_Read(1);
  6403   002C04  0E01               	movlw	1
  6404   002C06  EC23  F017         	call	_I2C_2_Master_Read
  6405   002C0A  6E12               	movwf	??_color_read_Green^0,c
  6406   002C0C  5012               	movf	??_color_read_Green^0,w,c
  6407   002C0E  6E15               	movwf	color_read_Green@tmp^0,c
  6408   002C10  6A16               	clrf	(color_read_Green@tmp+1)^0,c
  6409                           
  6410                           ;color.c: 55:  tmp=tmp | (I2C_2_Master_Read(0)<<8);
  6411   002C12  0E00               	movlw	0
  6412   002C14  EC23  F017         	call	_I2C_2_Master_Read
  6413   002C18  6E12               	movwf	??_color_read_Green^0,c
  6414   002C1A  5012               	movf	??_color_read_Green^0,w,c
  6415   002C1C  6E14               	movwf	(??_color_read_Green+2)^0,c
  6416   002C1E  6A13               	clrf	(??_color_read_Green+1)^0,c
  6417   002C20  5015               	movf	color_read_Green@tmp^0,w,c
  6418   002C22  1013               	iorwf	(??_color_read_Green+1)^0,w,c
  6419   002C24  6E15               	movwf	color_read_Green@tmp^0,c
  6420   002C26  5016               	movf	(color_read_Green@tmp+1)^0,w,c
  6421   002C28  1014               	iorwf	(??_color_read_Green+2)^0,w,c
  6422   002C2A  6E16               	movwf	(color_read_Green@tmp+1)^0,c
  6423                           
  6424                           ;color.c: 56:  I2C_2_Master_Stop();
  6425   002C2C  EC06  F019         	call	_I2C_2_Master_Stop	;wreg free
  6426   002C30                     
  6427                           ;color.c: 57:  return tmp;
  6428   002C30  C015  F010         	movff	color_read_Green@tmp,?_color_read_Green
  6429   002C34  C016  F011         	movff	color_read_Green@tmp+1,?_color_read_Green+1
  6430   002C38  0012               	return		;funcret
  6431   002C3A                     __end_of_color_read_Green:
  6432                           	callstack 0
  6433                           
  6434 ;; *************** function _color_read_Clear *****************
  6435 ;; Defined at:
  6436 ;;		line 74 in file "color.c"
  6437 ;; Parameters:    Size  Location     Type
  6438 ;;		None
  6439 ;; Auto vars:     Size  Location     Type
  6440 ;;  tmp             2   20[COMRAM] unsigned int 
  6441 ;; Return value:  Size  Location     Type
  6442 ;;                  2   15[COMRAM] unsigned int 
  6443 ;; Registers used:
  6444 ;;		wreg, status,2, status,0, cstack
  6445 ;; Tracked objects:
  6446 ;;		On entry : 0/0
  6447 ;;		On exit  : 0/0
  6448 ;;		Unchanged: 0/0
  6449 ;; Data sizes:     COMRAM   BANK0   BANK1   BANK2   BANK3   BANK4   BANK5   BANK6   BANK7   BANK8   BANK9  BANK10  BANK1
      +1  BANK12  BANK13
  6450 ;;      Params:         2       0       0       0       0       0       0       0       0       0       0       0       
      +0       0       0
  6451 ;;      Locals:         2       0       0       0       0       0       0       0       0       0       0       0       
      +0       0       0
  6452 ;;      Temps:          3       0       0       0       0       0       0       0       0       0       0       0       
      +0       0       0
  6453 ;;      Totals:         7       0       0       0       0       0       0       0       0       0       0       0       
      +0       0       0
  6454 ;;Total ram usage:        7 bytes
  6455 ;; Hardware stack levels used: 1
  6456 ;; Hardware stack levels required when called: 9
  6457 ;; This function calls:
  6458 ;;		_I2C_2_Master_Read
  6459 ;;		_I2C_2_Master_RepStart
  6460 ;;		_I2C_2_Master_Start
  6461 ;;		_I2C_2_Master_Stop
  6462 ;;		_I2C_2_Master_Write
  6463 ;; This function is called by:
  6464 ;;		_Update_RGBC
  6465 ;; This function uses a non-reentrant model
  6466 ;;
  6467                           
  6468                           	psect	text32
  6469   002C3A                     __ptext32:
  6470                           	callstack 0
  6471   002C3A                     _color_read_Clear:
  6472                           	callstack 20
  6473   002C3A                     
  6474                           ;color.c: 76:  unsigned int tmp;;color.c: 77:  I2C_2_Master_Start();
  6475   002C3A  EC0B  F019         	call	_I2C_2_Master_Start	;wreg free
  6476                           
  6477                           ;color.c: 78:  I2C_2_Master_Write(0x52 | 0x00);
  6478   002C3E  0E52               	movlw	82
  6479   002C40  ECF5  F018         	call	_I2C_2_Master_Write
  6480                           
  6481                           ;color.c: 79:  I2C_2_Master_Write(0xA0 | 0x14);
  6482   002C44  0EB4               	movlw	180
  6483   002C46  ECF5  F018         	call	_I2C_2_Master_Write
  6484                           
  6485                           ;color.c: 80:  I2C_2_Master_RepStart();
  6486   002C4A  EC01  F019         	call	_I2C_2_Master_RepStart	;wreg free
  6487                           
  6488                           ;color.c: 81:  I2C_2_Master_Write(0x52 | 0x01);
  6489   002C4E  0E53               	movlw	83
  6490   002C50  ECF5  F018         	call	_I2C_2_Master_Write
  6491                           
  6492                           ;color.c: 82:  tmp=I2C_2_Master_Read(1);
  6493   002C54  0E01               	movlw	1
  6494   002C56  EC23  F017         	call	_I2C_2_Master_Read
  6495   002C5A  6E12               	movwf	??_color_read_Clear^0,c
  6496   002C5C  5012               	movf	??_color_read_Clear^0,w,c
  6497   002C5E  6E15               	movwf	color_read_Clear@tmp^0,c
  6498   002C60  6A16               	clrf	(color_read_Clear@tmp+1)^0,c
  6499                           
  6500                           ;color.c: 83:  tmp=tmp | (I2C_2_Master_Read(0)<<8);
  6501   002C62  0E00               	movlw	0
  6502   002C64  EC23  F017         	call	_I2C_2_Master_Read
  6503   002C68  6E12               	movwf	??_color_read_Clear^0,c
  6504   002C6A  5012               	movf	??_color_read_Clear^0,w,c
  6505   002C6C  6E14               	movwf	(??_color_read_Clear+2)^0,c
  6506   002C6E  6A13               	clrf	(??_color_read_Clear+1)^0,c
  6507   002C70  5015               	movf	color_read_Clear@tmp^0,w,c
  6508   002C72  1013               	iorwf	(??_color_read_Clear+1)^0,w,c
  6509   002C74  6E15               	movwf	color_read_Clear@tmp^0,c
  6510   002C76  5016               	movf	(color_read_Clear@tmp+1)^0,w,c
  6511   002C78  1014               	iorwf	(??_color_read_Clear+2)^0,w,c
  6512   002C7A  6E16               	movwf	(color_read_Clear@tmp+1)^0,c
  6513                           
  6514                           ;color.c: 84:  I2C_2_Master_Stop();
  6515   002C7C  EC06  F019         	call	_I2C_2_Master_Stop	;wreg free
  6516   002C80                     
  6517                           ;color.c: 85:  return tmp;
  6518   002C80  C015  F010         	movff	color_read_Clear@tmp,?_color_read_Clear
  6519   002C84  C016  F011         	movff	color_read_Clear@tmp+1,?_color_read_Clear+1
  6520   002C88  0012               	return		;funcret
  6521   002C8A                     __end_of_color_read_Clear:
  6522                           	callstack 0
  6523                           
  6524 ;; *************** function _color_read_Blue *****************
  6525 ;; Defined at:
  6526 ;;		line 60 in file "color.c"
  6527 ;; Parameters:    Size  Location     Type
  6528 ;;		None
  6529 ;; Auto vars:     Size  Location     Type
  6530 ;;  tmp             2   20[COMRAM] unsigned int 
  6531 ;; Return value:  Size  Location     Type
  6532 ;;                  2   15[COMRAM] unsigned int 
  6533 ;; Registers used:
  6534 ;;		wreg, status,2, status,0, cstack
  6535 ;; Tracked objects:
  6536 ;;		On entry : 0/0
  6537 ;;		On exit  : 0/0
  6538 ;;		Unchanged: 0/0
  6539 ;; Data sizes:     COMRAM   BANK0   BANK1   BANK2   BANK3   BANK4   BANK5   BANK6   BANK7   BANK8   BANK9  BANK10  BANK1
      +1  BANK12  BANK13
  6540 ;;      Params:         2       0       0       0       0       0       0       0       0       0       0       0       
      +0       0       0
  6541 ;;      Locals:         2       0       0       0       0       0       0       0       0       0       0       0       
      +0       0       0
  6542 ;;      Temps:          3       0       0       0       0       0       0       0       0       0       0       0       
      +0       0       0
  6543 ;;      Totals:         7       0       0       0       0       0       0       0       0       0       0       0       
      +0       0       0
  6544 ;;Total ram usage:        7 bytes
  6545 ;; Hardware stack levels used: 1
  6546 ;; Hardware stack levels required when called: 9
  6547 ;; This function calls:
  6548 ;;		_I2C_2_Master_Read
  6549 ;;		_I2C_2_Master_RepStart
  6550 ;;		_I2C_2_Master_Start
  6551 ;;		_I2C_2_Master_Stop
  6552 ;;		_I2C_2_Master_Write
  6553 ;; This function is called by:
  6554 ;;		_Update_RGBC
  6555 ;; This function uses a non-reentrant model
  6556 ;;
  6557                           
  6558                           	psect	text33
  6559   002C8A                     __ptext33:
  6560                           	callstack 0
  6561   002C8A                     _color_read_Blue:
  6562                           	callstack 20
  6563   002C8A                     
  6564                           ;color.c: 62:  unsigned int tmp;;color.c: 63:  I2C_2_Master_Start();
  6565   002C8A  EC0B  F019         	call	_I2C_2_Master_Start	;wreg free
  6566                           
  6567                           ;color.c: 64:  I2C_2_Master_Write(0x52 | 0x00);
  6568   002C8E  0E52               	movlw	82
  6569   002C90  ECF5  F018         	call	_I2C_2_Master_Write
  6570                           
  6571                           ;color.c: 65:  I2C_2_Master_Write(0xA0 | 0x1A);
  6572   002C94  0EBA               	movlw	186
  6573   002C96  ECF5  F018         	call	_I2C_2_Master_Write
  6574                           
  6575                           ;color.c: 66:  I2C_2_Master_RepStart();
  6576   002C9A  EC01  F019         	call	_I2C_2_Master_RepStart	;wreg free
  6577                           
  6578                           ;color.c: 67:  I2C_2_Master_Write(0x52 | 0x01);
  6579   002C9E  0E53               	movlw	83
  6580   002CA0  ECF5  F018         	call	_I2C_2_Master_Write
  6581                           
  6582                           ;color.c: 68:  tmp=I2C_2_Master_Read(1);
  6583   002CA4  0E01               	movlw	1
  6584   002CA6  EC23  F017         	call	_I2C_2_Master_Read
  6585   002CAA  6E12               	movwf	??_color_read_Blue^0,c
  6586   002CAC  5012               	movf	??_color_read_Blue^0,w,c
  6587   002CAE  6E15               	movwf	color_read_Blue@tmp^0,c
  6588   002CB0  6A16               	clrf	(color_read_Blue@tmp+1)^0,c
  6589                           
  6590                           ;color.c: 69:  tmp=tmp | (I2C_2_Master_Read(0)<<8);
  6591   002CB2  0E00               	movlw	0
  6592   002CB4  EC23  F017         	call	_I2C_2_Master_Read
  6593   002CB8  6E12               	movwf	??_color_read_Blue^0,c
  6594   002CBA  5012               	movf	??_color_read_Blue^0,w,c
  6595   002CBC  6E14               	movwf	(??_color_read_Blue+2)^0,c
  6596   002CBE  6A13               	clrf	(??_color_read_Blue+1)^0,c
  6597   002CC0  5015               	movf	color_read_Blue@tmp^0,w,c
  6598   002CC2  1013               	iorwf	(??_color_read_Blue+1)^0,w,c
  6599   002CC4  6E15               	movwf	color_read_Blue@tmp^0,c
  6600   002CC6  5016               	movf	(color_read_Blue@tmp+1)^0,w,c
  6601   002CC8  1014               	iorwf	(??_color_read_Blue+2)^0,w,c
  6602   002CCA  6E16               	movwf	(color_read_Blue@tmp+1)^0,c
  6603                           
  6604                           ;color.c: 70:  I2C_2_Master_Stop();
  6605   002CCC  EC06  F019         	call	_I2C_2_Master_Stop	;wreg free
  6606   002CD0                     
  6607                           ;color.c: 71:  return tmp;
  6608   002CD0  C015  F010         	movff	color_read_Blue@tmp,?_color_read_Blue
  6609   002CD4  C016  F011         	movff	color_read_Blue@tmp+1,?_color_read_Blue+1
  6610   002CD8  0012               	return		;funcret
  6611   002CDA                     __end_of_color_read_Blue:
  6612                           	callstack 0
  6613                           
  6614 ;; *************** function _I2C_2_Master_RepStart *****************
  6615 ;; Defined at:
  6616 ;;		line 33 in file "i2c.c"
  6617 ;; Parameters:    Size  Location     Type
  6618 ;;		None
  6619 ;; Auto vars:     Size  Location     Type
  6620 ;;		None
  6621 ;; Return value:  Size  Location     Type
  6622 ;;                  1    wreg      void 
  6623 ;; Registers used:
  6624 ;;		wreg, status,2, status,0, cstack
  6625 ;; Tracked objects:
  6626 ;;		On entry : 0/0
  6627 ;;		On exit  : 0/0
  6628 ;;		Unchanged: 0/0
  6629 ;; Data sizes:     COMRAM   BANK0   BANK1   BANK2   BANK3   BANK4   BANK5   BANK6   BANK7   BANK8   BANK9  BANK10  BANK1
      +1  BANK12  BANK13
  6630 ;;      Params:         0       0       0       0       0       0       0       0       0       0       0       0       
      +0       0       0
  6631 ;;      Locals:         0       0       0       0       0       0       0       0       0       0       0       0       
      +0       0       0
  6632 ;;      Temps:          0       0       0       0       0       0       0       0       0       0       0       0       
      +0       0       0
  6633 ;;      Totals:         0       0       0       0       0       0       0       0       0       0       0       0       
      +0       0       0
  6634 ;;Total ram usage:        0 bytes
  6635 ;; Hardware stack levels used: 1
  6636 ;; Hardware stack levels required when called: 8
  6637 ;; This function calls:
  6638 ;;		_I2C_2_Master_Idle
  6639 ;; This function is called by:
  6640 ;;		_color_read_Red
  6641 ;;		_color_read_Green
  6642 ;;		_color_read_Blue
  6643 ;;		_color_read_Clear
  6644 ;; This function uses a non-reentrant model
  6645 ;;
  6646                           
  6647                           	psect	text34
  6648   003202                     __ptext34:
  6649                           	callstack 0
  6650   003202                     _I2C_2_Master_RepStart:
  6651                           	callstack 20
  6652   003202                     
  6653                           ;i2c.c: 35:   I2C_2_Master_Idle();
  6654   003202  EC17  F018         	call	_I2C_2_Master_Idle	;wreg free
  6655   003206                     
  6656                           ;i2c.c: 36:   SSP2CON2bits.RSEN = 1;
  6657   003206  010E               	movlb	14	; () banked
  6658   003208  83DA               	bsf	218,1,b	;volatile
  6659   00320A                     
  6660                           ; BSR set to: 14
  6661   00320A  0012               	return		;funcret
  6662   00320C                     __end_of_I2C_2_Master_RepStart:
  6663                           	callstack 0
  6664                           
  6665 ;; *************** function _I2C_2_Master_Read *****************
  6666 ;; Defined at:
  6667 ;;		line 51 in file "i2c.c"
  6668 ;; Parameters:    Size  Location     Type
  6669 ;;  ack             1    wreg     unsigned char 
  6670 ;; Auto vars:     Size  Location     Type
  6671 ;;  ack             1   13[COMRAM] unsigned char 
  6672 ;;  tmp             1   14[COMRAM] unsigned char 
  6673 ;; Return value:  Size  Location     Type
  6674 ;;                  1    wreg      unsigned char 
  6675 ;; Registers used:
  6676 ;;		wreg, status,2, status,0, cstack
  6677 ;; Tracked objects:
  6678 ;;		On entry : 0/0
  6679 ;;		On exit  : 0/0
  6680 ;;		Unchanged: 0/0
  6681 ;; Data sizes:     COMRAM   BANK0   BANK1   BANK2   BANK3   BANK4   BANK5   BANK6   BANK7   BANK8   BANK9  BANK10  BANK1
      +1  BANK12  BANK13
  6682 ;;      Params:         0       0       0       0       0       0       0       0       0       0       0       0       
      +0       0       0
  6683 ;;      Locals:         2       0       0       0       0       0       0       0       0       0       0       0       
      +0       0       0
  6684 ;;      Temps:          1       0       0       0       0       0       0       0       0       0       0       0       
      +0       0       0
  6685 ;;      Totals:         3       0       0       0       0       0       0       0       0       0       0       0       
      +0       0       0
  6686 ;;Total ram usage:        3 bytes
  6687 ;; Hardware stack levels used: 1
  6688 ;; Hardware stack levels required when called: 8
  6689 ;; This function calls:
  6690 ;;		_I2C_2_Master_Idle
  6691 ;; This function is called by:
  6692 ;;		_color_read_Red
  6693 ;;		_color_read_Green
  6694 ;;		_color_read_Blue
  6695 ;;		_color_read_Clear
  6696 ;; This function uses a non-reentrant model
  6697 ;;
  6698                           
  6699                           	psect	text35
  6700   002E46                     __ptext35:
  6701                           	callstack 0
  6702   002E46                     _I2C_2_Master_Read:
  6703                           	callstack 20
  6704                           
  6705                           ; BSR set to: 14
  6706                           ;incstack = 0
  6707                           ;I2C_2_Master_Read@ack stored from wreg
  6708   002E46  6E0E               	movwf	I2C_2_Master_Read@ack^0,c
  6709   002E48                     
  6710                           ;i2c.c: 51: unsigned char I2C_2_Master_Read(unsigned char ack);i2c.c: 52: {;i2c.c: 53:  
      +                           unsigned char tmp;;i2c.c: 54:   I2C_2_Master_Idle();
  6711   002E48  EC17  F018         	call	_I2C_2_Master_Idle	;wreg free
  6712   002E4C                     
  6713                           ;i2c.c: 55:   SSP2CON2bits.RCEN = 1;
  6714   002E4C  010E               	movlb	14	; () banked
  6715   002E4E  87DA               	bsf	218,3,b	;volatile
  6716                           
  6717                           ;i2c.c: 56:   I2C_2_Master_Idle();
  6718   002E50  EC17  F018         	call	_I2C_2_Master_Idle	;wreg free
  6719   002E54                     
  6720                           ;i2c.c: 57:   tmp = SSP2BUF;
  6721   002E54  CED5 F00F          	movff	3797,I2C_2_Master_Read@tmp	;volatile
  6722                           
  6723                           ;i2c.c: 58:   I2C_2_Master_Idle();
  6724   002E58  EC17  F018         	call	_I2C_2_Master_Idle	;wreg free
  6725   002E5C                     
  6726                           ;i2c.c: 59:   SSP2CON2bits.ACKDT = !ack;
  6727   002E5C  500E               	movf	I2C_2_Master_Read@ack^0,w,c
  6728   002E5E  B4D8               	btfsc	status,2,c
  6729   002E60  EF34  F017         	goto	u4361
  6730   002E64  EF38  F017         	goto	u4360
  6731   002E68                     u4361:
  6732   002E68  6A0D               	clrf	??_I2C_2_Master_Read^0,c
  6733   002E6A  2A0D               	incf	??_I2C_2_Master_Read^0,f,c
  6734   002E6C  EF39  F017         	goto	u4378
  6735   002E70                     u4360:
  6736   002E70  6A0D               	clrf	??_I2C_2_Master_Read^0,c
  6737   002E72                     u4378:
  6738   002E72  3A0D               	swapf	??_I2C_2_Master_Read^0,f,c
  6739   002E74  460D               	rlncf	??_I2C_2_Master_Read^0,f,c
  6740   002E76  010E               	movlb	14	; () banked
  6741   002E78  51DA               	movf	218,w,b	;volatile
  6742   002E7A  180D               	xorwf	??_I2C_2_Master_Read^0,w,c
  6743   002E7C  0BDF               	andlw	-33
  6744   002E7E  180D               	xorwf	??_I2C_2_Master_Read^0,w,c
  6745   002E80  6FDA               	movwf	218,b	;volatile
  6746   002E82                     
  6747                           ; BSR set to: 14
  6748                           ;i2c.c: 60:   SSP2CON2bits.ACKEN = 1;
  6749   002E82  89DA               	bsf	218,4,b	;volatile
  6750   002E84                     
  6751                           ; BSR set to: 14
  6752                           ;i2c.c: 61:   return tmp;
  6753   002E84  500F               	movf	I2C_2_Master_Read@tmp^0,w,c
  6754   002E86                     
  6755                           ; BSR set to: 14
  6756   002E86  0012               	return		;funcret
  6757   002E88                     __end_of_I2C_2_Master_Read:
  6758                           	callstack 0
  6759                           
  6760 ;; *************** function _TxBufferedString *****************
  6761 ;; Defined at:
  6762 ;;		line 87 in file "serial.c"
  6763 ;; Parameters:    Size  Location     Type
  6764 ;;  string          2   12[COMRAM] PTR unsigned char 
  6765 ;;		 -> main@string2(40), 
  6766 ;; Auto vars:     Size  Location     Type
  6767 ;;		None
  6768 ;; Return value:  Size  Location     Type
  6769 ;;                  1    wreg      void 
  6770 ;; Registers used:
  6771 ;;		wreg, fsr2l, fsr2h, status,2, status,0, cstack
  6772 ;; Tracked objects:
  6773 ;;		On entry : 0/0
  6774 ;;		On exit  : 0/0
  6775 ;;		Unchanged: 0/0
  6776 ;; Data sizes:     COMRAM   BANK0   BANK1   BANK2   BANK3   BANK4   BANK5   BANK6   BANK7   BANK8   BANK9  BANK10  BANK1
      +1  BANK12  BANK13
  6777 ;;      Params:         2       0       0       0       0       0       0       0       0       0       0       0       
      +0       0       0
  6778 ;;      Locals:         0       0       0       0       0       0       0       0       0       0       0       0       
      +0       0       0
  6779 ;;      Temps:          0       0       0       0       0       0       0       0       0       0       0       0       
      +0       0       0
  6780 ;;      Totals:         2       0       0       0       0       0       0       0       0       0       0       0       
      +0       0       0
  6781 ;;Total ram usage:        2 bytes
  6782 ;; Hardware stack levels used: 1
  6783 ;; Hardware stack levels required when called: 8
  6784 ;; This function calls:
  6785 ;;		_putCharToTxBuf
  6786 ;; This function is called by:
  6787 ;;		_main
  6788 ;; This function uses a non-reentrant model
  6789 ;;
  6790                           
  6791                           	psect	text36
  6792   002EFC                     __ptext36:
  6793                           	callstack 0
  6794   002EFC                     _TxBufferedString:
  6795                           	callstack 22
  6796   002EFC                     
  6797                           ;serial.c: 90:     while(*string != 0){
  6798   002EFC  EF89  F017         	goto	l4756
  6799   002F00                     l4752:
  6800                           
  6801                           ;serial.c: 91:   putCharToTxBuf(*string++);
  6802   002F00  C00D  FFD9         	movff	TxBufferedString@string,fsr2l
  6803   002F04  C00E  FFDA         	movff	TxBufferedString@string+1,fsr2h
  6804   002F08  50DF               	movf	indf2,w,c
  6805   002F0A  ECED  F017         	call	_putCharToTxBuf
  6806   002F0E  4A0D               	infsnz	TxBufferedString@string^0,f,c
  6807   002F10  2A0E               	incf	(TxBufferedString@string+1)^0,f,c
  6808   002F12                     l4756:
  6809                           
  6810                           ;serial.c: 90:     while(*string != 0){
  6811   002F12  C00D  FFD9         	movff	TxBufferedString@string,fsr2l
  6812   002F16  C00E  FFDA         	movff	TxBufferedString@string+1,fsr2h
  6813   002F1A  50DF               	movf	indf2,w,c
  6814   002F1C  A4D8               	btfss	status,2,c
  6815   002F1E  EF93  F017         	goto	u5611
  6816   002F22  EF95  F017         	goto	u5610
  6817   002F26                     u5611:
  6818   002F26  EF80  F017         	goto	l4752
  6819   002F2A                     u5610:
  6820   002F2A  0012               	return		;funcret
  6821   002F2C                     __end_of_TxBufferedString:
  6822                           	callstack 0
  6823                           
  6824 ;; *************** function _putCharToTxBuf *****************
  6825 ;; Defined at:
  6826 ;;		line 74 in file "serial.c"
  6827 ;; Parameters:    Size  Location     Type
  6828 ;;  byte            1    wreg     unsigned char 
  6829 ;; Auto vars:     Size  Location     Type
  6830 ;;  byte            1   11[COMRAM] unsigned char 
  6831 ;; Return value:  Size  Location     Type
  6832 ;;                  1    wreg      void 
  6833 ;; Registers used:
  6834 ;;		wreg, fsr2l, fsr2h, status,2, status,0
  6835 ;; Tracked objects:
  6836 ;;		On entry : 0/0
  6837 ;;		On exit  : 0/0
  6838 ;;		Unchanged: 0/0
  6839 ;; Data sizes:     COMRAM   BANK0   BANK1   BANK2   BANK3   BANK4   BANK5   BANK6   BANK7   BANK8   BANK9  BANK10  BANK1
      +1  BANK12  BANK13
  6840 ;;      Params:         0       0       0       0       0       0       0       0       0       0       0       0       
      +0       0       0
  6841 ;;      Locals:         1       0       0       0       0       0       0       0       0       0       0       0       
      +0       0       0
  6842 ;;      Temps:          0       0       0       0       0       0       0       0       0       0       0       0       
      +0       0       0
  6843 ;;      Totals:         1       0       0       0       0       0       0       0       0       0       0       0       
      +0       0       0
  6844 ;;Total ram usage:        1 bytes
  6845 ;; Hardware stack levels used: 1
  6846 ;; Hardware stack levels required when called: 7
  6847 ;; This function calls:
  6848 ;;		Nothing
  6849 ;; This function is called by:
  6850 ;;		_TxBufferedString
  6851 ;; This function uses a non-reentrant model
  6852 ;;
  6853                           
  6854                           	psect	text37
  6855   002FDA                     __ptext37:
  6856                           	callstack 0
  6857   002FDA                     _putCharToTxBuf:
  6858                           	callstack 22
  6859                           
  6860                           ;incstack = 0
  6861                           ;putCharToTxBuf@byte stored from wreg
  6862   002FDA  6E0C               	movwf	putCharToTxBuf@byte^0,c
  6863   002FDC                     
  6864                           ;serial.c: 75:     if (TxBufWriteCnt>=60) {TxBufWriteCnt=0;}
  6865   002FDC  0E3B               	movlw	59
  6866   002FDE  644F               	cpfsgt	_TxBufWriteCnt^0,c	;volatile
  6867   002FE0  EFF4  F017         	goto	u4451
  6868   002FE4  EFF6  F017         	goto	u4450
  6869   002FE8                     u4451:
  6870   002FE8  EFF8  F017         	goto	l4192
  6871   002FEC                     u4450:
  6872   002FEC  0E00               	movlw	0
  6873   002FEE  6E4F               	movwf	_TxBufWriteCnt^0,c	;volatile
  6874   002FF0                     l4192:
  6875                           
  6876                           ;serial.c: 76:     EUSART4TXbuf[TxBufWriteCnt++]=byte;
  6877   002FF0  0E00               	movlw	low _EUSART4TXbuf
  6878   002FF2  244F               	addwf	_TxBufWriteCnt^0,w,c	;volatile
  6879   002FF4  6ED9               	movwf	fsr2l,c
  6880   002FF6  6ADA               	clrf	fsr2h,c
  6881   002FF8  0E01               	movlw	high _EUSART4TXbuf
  6882   002FFA  22DA               	addwfc	fsr2h,f,c
  6883   002FFC  C00C  FFDF         	movff	putCharToTxBuf@byte,indf2
  6884   003000  2A4F               	incf	_TxBufWriteCnt^0,f,c	;volatile
  6885   003002  0012               	return		;funcret
  6886   003004                     __end_of_putCharToTxBuf:
  6887                           	callstack 0
  6888                           
  6889 ;; *************** function _Timer0_init *****************
  6890 ;; Defined at:
  6891 ;;		line 7 in file "timers.c"
  6892 ;; Parameters:    Size  Location     Type
  6893 ;;		None
  6894 ;; Auto vars:     Size  Location     Type
  6895 ;;		None
  6896 ;; Return value:  Size  Location     Type
  6897 ;;                  1    wreg      void 
  6898 ;; Registers used:
  6899 ;;		wreg, status,2
  6900 ;; Tracked objects:
  6901 ;;		On entry : 0/0
  6902 ;;		On exit  : 0/0
  6903 ;;		Unchanged: 0/0
  6904 ;; Data sizes:     COMRAM   BANK0   BANK1   BANK2   BANK3   BANK4   BANK5   BANK6   BANK7   BANK8   BANK9  BANK10  BANK1
      +1  BANK12  BANK13
  6905 ;;      Params:         0       0       0       0       0       0       0       0       0       0       0       0       
      +0       0       0
  6906 ;;      Locals:         0       0       0       0       0       0       0       0       0       0       0       0       
      +0       0       0
  6907 ;;      Temps:          0       0       0       0       0       0       0       0       0       0       0       0       
      +0       0       0
  6908 ;;      Totals:         0       0       0       0       0       0       0       0       0       0       0       0       
      +0       0       0
  6909 ;;Total ram usage:        0 bytes
  6910 ;; Hardware stack levels used: 1
  6911 ;; Hardware stack levels required when called: 7
  6912 ;; This function calls:
  6913 ;;		Nothing
  6914 ;; This function is called by:
  6915 ;;		_main
  6916 ;; This function uses a non-reentrant model
  6917 ;;
  6918                           
  6919                           	psect	text38
  6920   0030CA                     __ptext38:
  6921                           	callstack 0
  6922   0030CA                     _Timer0_init:
  6923                           	callstack 23
  6924   0030CA                     
  6925                           ;timers.c: 9:     T0CON1bits.T0CS=0b010;
  6926   0030CA  50D6               	movf	214,w,c	;volatile
  6927   0030CC  0B1F               	andlw	-225
  6928   0030CE  0940               	iorlw	64
  6929   0030D0  6ED6               	movwf	214,c	;volatile
  6930   0030D2                     
  6931                           ;timers.c: 10:     T0CON1bits.T0ASYNC=1;
  6932   0030D2  88D6               	bsf	214,4,c	;volatile
  6933                           
  6934                           ;timers.c: 11:     T0CON1bits.T0CKPS=0b1000;
  6935   0030D4  50D6               	movf	214,w,c	;volatile
  6936   0030D6  0BF0               	andlw	-16
  6937   0030D8  0908               	iorlw	8
  6938   0030DA  6ED6               	movwf	214,c	;volatile
  6939   0030DC                     
  6940                           ;timers.c: 12:     T0CON0bits.T016BIT=1;
  6941   0030DC  88D5               	bsf	213,4,c	;volatile
  6942                           
  6943                           ;timers.c: 15:     TMR0H = 0b11000010;
  6944   0030DE  0EC2               	movlw	194
  6945   0030E0  6ED4               	movwf	212,c	;volatile
  6946                           
  6947                           ;timers.c: 16:     TMR0L = 0b11110110;
  6948   0030E2  0EF6               	movlw	246
  6949   0030E4  6ED3               	movwf	211,c	;volatile
  6950   0030E6                     
  6951                           ;timers.c: 17:     T0CON0bits.T0EN=1;
  6952   0030E6  8ED5               	bsf	213,7,c	;volatile
  6953   0030E8  0012               	return		;funcret
  6954   0030EA                     __end_of_Timer0_init:
  6955                           	callstack 0
  6956                           
  6957 ;; *************** function _LED_init *****************
  6958 ;; Defined at:
  6959 ;;		line 7 in file "LED_Buttons.c"
  6960 ;; Parameters:    Size  Location     Type
  6961 ;;		None
  6962 ;; Auto vars:     Size  Location     Type
  6963 ;;		None
  6964 ;; Return value:  Size  Location     Type
  6965 ;;                  1    wreg      void 
  6966 ;; Registers used:
  6967 ;;		None
  6968 ;; Tracked objects:
  6969 ;;		On entry : 0/0
  6970 ;;		On exit  : 0/0
  6971 ;;		Unchanged: 0/0
  6972 ;; Data sizes:     COMRAM   BANK0   BANK1   BANK2   BANK3   BANK4   BANK5   BANK6   BANK7   BANK8   BANK9  BANK10  BANK1
      +1  BANK12  BANK13
  6973 ;;      Params:         0       0       0       0       0       0       0       0       0       0       0       0       
      +0       0       0
  6974 ;;      Locals:         0       0       0       0       0       0       0       0       0       0       0       0       
      +0       0       0
  6975 ;;      Temps:          0       0       0       0       0       0       0       0       0       0       0       0       
      +0       0       0
  6976 ;;      Totals:         0       0       0       0       0       0       0       0       0       0       0       0       
      +0       0       0
  6977 ;;Total ram usage:        0 bytes
  6978 ;; Hardware stack levels used: 1
  6979 ;; Hardware stack levels required when called: 7
  6980 ;; This function calls:
  6981 ;;		Nothing
  6982 ;; This function is called by:
  6983 ;;		_main
  6984 ;; This function uses a non-reentrant model
  6985 ;;
  6986                           
  6987                           	psect	text39
  6988   0031DE                     __ptext39:
  6989                           	callstack 0
  6990   0031DE                     _LED_init:
  6991                           	callstack 23
  6992   0031DE                     
  6993                           ;LED_Buttons.c: 8:     TRISGbits.TRISG1 = 0;
  6994   0031DE  9287               	bcf	135,1,c	;volatile
  6995                           
  6996                           ;LED_Buttons.c: 9:     TRISAbits.TRISA4 = 0;
  6997   0031E0  9881               	bcf	129,4,c	;volatile
  6998                           
  6999                           ;LED_Buttons.c: 10:     TRISFbits.TRISF7 = 0;
  7000   0031E2  9E86               	bcf	134,7,c	;volatile
  7001                           
  7002                           ;LED_Buttons.c: 12:     LATHbits.LATH3 = 0;
  7003   0031E4  9680               	bcf	128,3,c	;volatile
  7004                           
  7005                           ;LED_Buttons.c: 13:     TRISHbits.TRISH3 = 0;
  7006   0031E6  9688               	bcf	136,3,c	;volatile
  7007   0031E8  0012               	return		;funcret
  7008   0031EA                     __end_of_LED_init:
  7009                           	callstack 0
  7010                           
  7011 ;; *************** function _Interrupts_init *****************
  7012 ;; Defined at:
  7013 ;;		line 12 in file "interrupts.c"
  7014 ;; Parameters:    Size  Location     Type
  7015 ;;		None
  7016 ;; Auto vars:     Size  Location     Type
  7017 ;;		None
  7018 ;; Return value:  Size  Location     Type
  7019 ;;                  1    wreg      void 
  7020 ;; Registers used:
  7021 ;;		wreg, status,2, status,0, cstack
  7022 ;; Tracked objects:
  7023 ;;		On entry : 0/0
  7024 ;;		On exit  : 0/0
  7025 ;;		Unchanged: 0/0
  7026 ;; Data sizes:     COMRAM   BANK0   BANK1   BANK2   BANK3   BANK4   BANK5   BANK6   BANK7   BANK8   BANK9  BANK10  BANK1
      +1  BANK12  BANK13
  7027 ;;      Params:         0       0       0       0       0       0       0       0       0       0       0       0       
      +0       0       0
  7028 ;;      Locals:         0       0       0       0       0       0       0       0       0       0       0       0       
      +0       0       0
  7029 ;;      Temps:          0       0       0       0       0       0       0       0       0       0       0       0       
      +0       0       0
  7030 ;;      Totals:         0       0       0       0       0       0       0       0       0       0       0       0       
      +0       0       0
  7031 ;;Total ram usage:        0 bytes
  7032 ;; Hardware stack levels used: 1
  7033 ;; Hardware stack levels required when called: 12
  7034 ;; This function calls:
  7035 ;;		_interrupts_clear_colorclick
  7036 ;; This function is called by:
  7037 ;;		_main
  7038 ;; This function uses a non-reentrant model
  7039 ;;
  7040                           
  7041                           	psect	text40
  7042   0030A4                     __ptext40:
  7043                           	callstack 0
  7044   0030A4                     _Interrupts_init:
  7045                           	callstack 18
  7046   0030A4                     
  7047                           ;interrupts.c: 18:     TRISBbits.TRISB1 = 1;
  7048   0030A4  8282               	bsf	130,1,c	;volatile
  7049                           
  7050                           ;interrupts.c: 19:     ANSELBbits.ANSELB1 = 0;
  7051   0030A6  010E               	movlb	14	; () banked
  7052   0030A8  939A               	bcf	154,1,b	;volatile
  7053   0030AA                     
  7054                           ; BSR set to: 14
  7055                           ;interrupts.c: 20:     INT1PPS = 0x09;
  7056   0030AA  0E09               	movlw	9
  7057   0030AC  010D               	movlb	13	; () banked
  7058   0030AE  6FF1               	movwf	241,b	;volatile
  7059   0030B0                     
  7060                           ; BSR set to: 13
  7061                           ;interrupts.c: 21:     PIE0bits.INT1IE = 1;
  7062   0030B0  010E               	movlb	14	; () banked
  7063   0030B2  8329               	bsf	41,1,b	;volatile
  7064   0030B4                     
  7065                           ; BSR set to: 14
  7066                           ;interrupts.c: 22:     IPR0bits.INT1IP = 1;
  7067   0030B4  831F               	bsf	31,1,b	;volatile
  7068   0030B6                     
  7069                           ; BSR set to: 14
  7070                           ;interrupts.c: 23:     INTCONbits.INT1EDG = 0;
  7071   0030B6  92F2               	bcf	242,1,c	;volatile
  7072   0030B8                     
  7073                           ; BSR set to: 14
  7074                           ;interrupts.c: 26:     PIE0bits.TMR0IE=1;
  7075   0030B8  8B29               	bsf	41,5,b	;volatile
  7076   0030BA                     
  7077                           ; BSR set to: 14
  7078                           ;interrupts.c: 27:     IPR0bits.TMR0IP = 0;
  7079   0030BA  9B1F               	bcf	31,5,b	;volatile
  7080   0030BC                     
  7081                           ; BSR set to: 14
  7082                           ;interrupts.c: 30:     PIE4bits.RC4IE=1;
  7083   0030BC  872D               	bsf	45,3,b	;volatile
  7084   0030BE                     
  7085                           ; BSR set to: 14
  7086                           ;interrupts.c: 32:     interrupts_clear_colorclick();
  7087   0030BE  ECB1  F018         	call	_interrupts_clear_colorclick	;wreg free
  7088   0030C2                     
  7089                           ;interrupts.c: 34:     INTCONbits.IPEN = 1;
  7090   0030C2  8AF2               	bsf	242,5,c	;volatile
  7091   0030C4                     
  7092                           ;interrupts.c: 35:     INTCONbits.PEIE = 1;
  7093   0030C4  8CF2               	bsf	242,6,c	;volatile
  7094   0030C6                     
  7095                           ;interrupts.c: 36:     INTCONbits.GIE=1;
  7096   0030C6  8EF2               	bsf	242,7,c	;volatile
  7097   0030C8  0012               	return		;funcret
  7098   0030CA                     __end_of_Interrupts_init:
  7099                           	callstack 0
  7100                           
  7101 ;; *************** function _interrupts_clear_colorclick *****************
  7102 ;; Defined at:
  7103 ;;		line 57 in file "interrupts.c"
  7104 ;; Parameters:    Size  Location     Type
  7105 ;;		None
  7106 ;; Auto vars:     Size  Location     Type
  7107 ;;		None
  7108 ;; Return value:  Size  Location     Type
  7109 ;;                  1    wreg      void 
  7110 ;; Registers used:
  7111 ;;		wreg, status,2, status,0, cstack
  7112 ;; Tracked objects:
  7113 ;;		On entry : 0/0
  7114 ;;		On exit  : 0/0
  7115 ;;		Unchanged: 0/0
  7116 ;; Data sizes:     COMRAM   BANK0   BANK1   BANK2   BANK3   BANK4   BANK5   BANK6   BANK7   BANK8   BANK9  BANK10  BANK1
      +1  BANK12  BANK13
  7117 ;;      Params:         0       0       0       0       0       0       0       0       0       0       0       0       
      +0       0       0
  7118 ;;      Locals:         0       0       0       0       0       0       0       0       0       0       0       0       
      +0       0       0
  7119 ;;      Temps:          0       0       0       0       0       0       0       0       0       0       0       0       
      +0       0       0
  7120 ;;      Totals:         0       0       0       0       0       0       0       0       0       0       0       0       
      +0       0       0
  7121 ;;Total ram usage:        0 bytes
  7122 ;; Hardware stack levels used: 1
  7123 ;; Hardware stack levels required when called: 11
  7124 ;; This function calls:
  7125 ;;		_I2C_2_Master_Start
  7126 ;;		_I2C_2_Master_Stop
  7127 ;;		_I2C_2_Master_Write
  7128 ;;		_init_colorclick_interrupts
  7129 ;; This function is called by:
  7130 ;;		_Interrupts_init
  7131 ;; This function uses a non-reentrant model
  7132 ;;
  7133                           
  7134                           	psect	text41
  7135   003162                     __ptext41:
  7136                           	callstack 0
  7137   003162                     _interrupts_clear_colorclick:
  7138                           	callstack 18
  7139   003162                     
  7140                           ;interrupts.c: 59:     I2C_2_Master_Start();
  7141   003162  EC0B  F019         	call	_I2C_2_Master_Start	;wreg free
  7142                           
  7143                           ;interrupts.c: 60:     I2C_2_Master_Write(0x52 | 0x00);
  7144   003166  0E52               	movlw	82
  7145   003168  ECF5  F018         	call	_I2C_2_Master_Write
  7146                           
  7147                           ;interrupts.c: 61:     I2C_2_Master_Write(0b11100110);
  7148   00316C  0EE6               	movlw	230
  7149   00316E  ECF5  F018         	call	_I2C_2_Master_Write
  7150                           
  7151                           ;interrupts.c: 62:     I2C_2_Master_Stop();
  7152   003172  EC06  F019         	call	_I2C_2_Master_Stop	;wreg free
  7153                           
  7154                           ;interrupts.c: 64:     init_colorclick_interrupts();
  7155   003176  EC6D  F016         	call	_init_colorclick_interrupts	;wreg free
  7156   00317A  0012               	return		;funcret
  7157   00317C                     __end_of_interrupts_clear_colorclick:
  7158                           	callstack 0
  7159                           
  7160 ;; *************** function _init_colorclick_interrupts *****************
  7161 ;; Defined at:
  7162 ;;		line 43 in file "interrupts.c"
  7163 ;; Parameters:    Size  Location     Type
  7164 ;;		None
  7165 ;; Auto vars:     Size  Location     Type
  7166 ;;		None
  7167 ;; Return value:  Size  Location     Type
  7168 ;;                  1    wreg      void 
  7169 ;; Registers used:
  7170 ;;		wreg, status,2, status,0, cstack
  7171 ;; Tracked objects:
  7172 ;;		On entry : 0/0
  7173 ;;		On exit  : 0/0
  7174 ;;		Unchanged: 0/0
  7175 ;; Data sizes:     COMRAM   BANK0   BANK1   BANK2   BANK3   BANK4   BANK5   BANK6   BANK7   BANK8   BANK9  BANK10  BANK1
      +1  BANK12  BANK13
  7176 ;;      Params:         0       0       0       0       0       0       0       0       0       0       0       0       
      +0       0       0
  7177 ;;      Locals:         0       0       0       0       0       0       0       0       0       0       0       0       
      +0       0       0
  7178 ;;      Temps:          1       0       0       0       0       0       0       0       0       0       0       0       
      +0       0       0
  7179 ;;      Totals:         1       0       0       0       0       0       0       0       0       0       0       0       
      +0       0       0
  7180 ;;Total ram usage:        1 bytes
  7181 ;; Hardware stack levels used: 1
  7182 ;; Hardware stack levels required when called: 10
  7183 ;; This function calls:
  7184 ;;		_color_writetoaddr
  7185 ;; This function is called by:
  7186 ;;		_interrupts_clear_colorclick
  7187 ;; This function uses a non-reentrant model
  7188 ;;
  7189                           
  7190                           	psect	text42
  7191   002CDA                     __ptext42:
  7192                           	callstack 0
  7193   002CDA                     _init_colorclick_interrupts:
  7194                           	callstack 18
  7195   002CDA                     
  7196                           ;interrupts.c: 45:     color_writetoaddr(0x00,0b10011);
  7197   002CDA  0E13               	movlw	19
  7198   002CDC  6E0E               	movwf	color_writetoaddr@value^0,c
  7199   002CDE  0E00               	movlw	0
  7200   002CE0  EC75  F018         	call	_color_writetoaddr
  7201   002CE4                     
  7202                           ;interrupts.c: 46:     _delay((unsigned long)((3)*(64000000/4000.0)));
  7203   002CE4  0E3F               	movlw	63
  7204   002CE6  6E10               	movwf	??_init_colorclick_interrupts^0,c
  7205   002CE8  0E55               	movlw	85
  7206   002CEA                     u5757:
  7207   002CEA  2EE8               	decfsz	wreg,f,c
  7208   002CEC  D7FE               	bra	u5757
  7209   002CEE  2E10               	decfsz	??_init_colorclick_interrupts^0,f,c
  7210   002CF0  D7FC               	bra	u5757
  7211   002CF2  F000               	nop	
  7212   002CF4                     
  7213                           ;interrupts.c: 48:     color_writetoaddr(0x0C,0b0100);
  7214   002CF4  0E04               	movlw	4
  7215   002CF6  6E0E               	movwf	color_writetoaddr@value^0,c
  7216   002CF8  0E0C               	movlw	12
  7217   002CFA  EC75  F018         	call	_color_writetoaddr
  7218   002CFE                     
  7219                           ;interrupts.c: 49:     color_writetoaddr(0x04,(int_threshold_low & 0xFF));
  7220   002CFE  C04B  F00E         	movff	_int_threshold_low,color_writetoaddr@value
  7221   002D02  0E04               	movlw	4
  7222   002D04  EC75  F018         	call	_color_writetoaddr
  7223   002D08                     
  7224                           ;interrupts.c: 50:     color_writetoaddr(0x05,(int_threshold_low >> 8));
  7225   002D08  504C               	movf	(_int_threshold_low+1)^0,w,c
  7226   002D0A  6E0E               	movwf	color_writetoaddr@value^0,c
  7227   002D0C  0E05               	movlw	5
  7228   002D0E  EC75  F018         	call	_color_writetoaddr
  7229   002D12                     
  7230                           ;interrupts.c: 51:     color_writetoaddr(0x06,(int_threshold_high & 0xFF));
  7231   002D12  C052  F00E         	movff	_int_threshold_high,color_writetoaddr@value
  7232   002D16  0E06               	movlw	6
  7233   002D18  EC75  F018         	call	_color_writetoaddr
  7234   002D1C                     
  7235                           ;interrupts.c: 52:     color_writetoaddr(0x07,(int_threshold_high >> 8));
  7236   002D1C  5053               	movf	(_int_threshold_high+1)^0,w,c
  7237   002D1E  6E0E               	movwf	color_writetoaddr@value^0,c
  7238   002D20  0E07               	movlw	7
  7239   002D22  EC75  F018         	call	_color_writetoaddr
  7240   002D26  0012               	return		;funcret
  7241   002D28                     __end_of_init_colorclick_interrupts:
  7242                           	callstack 0
  7243                           
  7244 ;; *************** function _color_writetoaddr *****************
  7245 ;; Defined at:
  7246 ;;		line 22 in file "color.c"
  7247 ;; Parameters:    Size  Location     Type
  7248 ;;  address         1    wreg     unsigned char 
  7249 ;;  value           1   13[COMRAM] unsigned char 
  7250 ;; Auto vars:     Size  Location     Type
  7251 ;;  address         1   14[COMRAM] unsigned char 
  7252 ;; Return value:  Size  Location     Type
  7253 ;;                  1    wreg      void 
  7254 ;; Registers used:
  7255 ;;		wreg, status,2, status,0, cstack
  7256 ;; Tracked objects:
  7257 ;;		On entry : 0/0
  7258 ;;		On exit  : 0/0
  7259 ;;		Unchanged: 0/0
  7260 ;; Data sizes:     COMRAM   BANK0   BANK1   BANK2   BANK3   BANK4   BANK5   BANK6   BANK7   BANK8   BANK9  BANK10  BANK1
      +1  BANK12  BANK13
  7261 ;;      Params:         1       0       0       0       0       0       0       0       0       0       0       0       
      +0       0       0
  7262 ;;      Locals:         1       0       0       0       0       0       0       0       0       0       0       0       
      +0       0       0
  7263 ;;      Temps:          0       0       0       0       0       0       0       0       0       0       0       0       
      +0       0       0
  7264 ;;      Totals:         2       0       0       0       0       0       0       0       0       0       0       0       
      +0       0       0
  7265 ;;Total ram usage:        2 bytes
  7266 ;; Hardware stack levels used: 1
  7267 ;; Hardware stack levels required when called: 9
  7268 ;; This function calls:
  7269 ;;		_I2C_2_Master_Start
  7270 ;;		_I2C_2_Master_Stop
  7271 ;;		_I2C_2_Master_Write
  7272 ;; This function is called by:
  7273 ;;		_color_click_init
  7274 ;;		_init_colorclick_interrupts
  7275 ;; This function uses a non-reentrant model
  7276 ;;
  7277                           
  7278                           	psect	text43
  7279   0030EA                     __ptext43:
  7280                           	callstack 0
  7281   0030EA                     _color_writetoaddr:
  7282                           	callstack 20
  7283                           
  7284                           ;incstack = 0
  7285                           ;color_writetoaddr@address stored from wreg
  7286   0030EA  6E0F               	movwf	color_writetoaddr@address^0,c
  7287   0030EC                     
  7288                           ;color.c: 23:     I2C_2_Master_Start();
  7289   0030EC  EC0B  F019         	call	_I2C_2_Master_Start	;wreg free
  7290                           
  7291                           ;color.c: 24:     I2C_2_Master_Write(0x52 | 0x00);
  7292   0030F0  0E52               	movlw	82
  7293   0030F2  ECF5  F018         	call	_I2C_2_Master_Write
  7294                           
  7295                           ;color.c: 25:     I2C_2_Master_Write(0x80 | address);
  7296   0030F6  500F               	movf	color_writetoaddr@address^0,w,c
  7297   0030F8  0980               	iorlw	128
  7298   0030FA  ECF5  F018         	call	_I2C_2_Master_Write
  7299                           
  7300                           ;color.c: 26:     I2C_2_Master_Write(value);
  7301   0030FE  500E               	movf	color_writetoaddr@value^0,w,c
  7302   003100  ECF5  F018         	call	_I2C_2_Master_Write
  7303                           
  7304                           ;color.c: 27:     I2C_2_Master_Stop();
  7305   003104  EC06  F019         	call	_I2C_2_Master_Stop	;wreg free
  7306   003108  0012               	return		;funcret
  7307   00310A                     __end_of_color_writetoaddr:
  7308                           	callstack 0
  7309                           
  7310 ;; *************** function _I2C_2_Master_Write *****************
  7311 ;; Defined at:
  7312 ;;		line 45 in file "i2c.c"
  7313 ;; Parameters:    Size  Location     Type
  7314 ;;  data_byte       1    wreg     unsigned char 
  7315 ;; Auto vars:     Size  Location     Type
  7316 ;;  data_byte       1   12[COMRAM] unsigned char 
  7317 ;; Return value:  Size  Location     Type
  7318 ;;                  1    wreg      void 
  7319 ;; Registers used:
  7320 ;;		wreg, status,2, status,0, cstack
  7321 ;; Tracked objects:
  7322 ;;		On entry : 0/0
  7323 ;;		On exit  : 0/0
  7324 ;;		Unchanged: 0/0
  7325 ;; Data sizes:     COMRAM   BANK0   BANK1   BANK2   BANK3   BANK4   BANK5   BANK6   BANK7   BANK8   BANK9  BANK10  BANK1
      +1  BANK12  BANK13
  7326 ;;      Params:         0       0       0       0       0       0       0       0       0       0       0       0       
      +0       0       0
  7327 ;;      Locals:         1       0       0       0       0       0       0       0       0       0       0       0       
      +0       0       0
  7328 ;;      Temps:          0       0       0       0       0       0       0       0       0       0       0       0       
      +0       0       0
  7329 ;;      Totals:         1       0       0       0       0       0       0       0       0       0       0       0       
      +0       0       0
  7330 ;;Total ram usage:        1 bytes
  7331 ;; Hardware stack levels used: 1
  7332 ;; Hardware stack levels required when called: 8
  7333 ;; This function calls:
  7334 ;;		_I2C_2_Master_Idle
  7335 ;; This function is called by:
  7336 ;;		_color_writetoaddr
  7337 ;;		_color_read_Red
  7338 ;;		_color_read_Green
  7339 ;;		_color_read_Blue
  7340 ;;		_color_read_Clear
  7341 ;;		_interrupts_clear_colorclick
  7342 ;; This function uses a non-reentrant model
  7343 ;;
  7344                           
  7345                           	psect	text44
  7346   0031EA                     __ptext44:
  7347                           	callstack 0
  7348   0031EA                     _I2C_2_Master_Write:
  7349                           	callstack 20
  7350                           
  7351                           ;incstack = 0
  7352                           ;I2C_2_Master_Write@data_byte stored from wreg
  7353   0031EA  6E0D               	movwf	I2C_2_Master_Write@data_byte^0,c
  7354   0031EC                     
  7355                           ;i2c.c: 45: void I2C_2_Master_Write(unsigned char data_byte);i2c.c: 46: {;i2c.c: 47:   I
      +                          2C_2_Master_Idle();
  7356   0031EC  EC17  F018         	call	_I2C_2_Master_Idle	;wreg free
  7357   0031F0                     
  7358                           ;i2c.c: 48:   SSP2BUF = data_byte;
  7359   0031F0  C00D  FED5         	movff	I2C_2_Master_Write@data_byte,3797	;volatile
  7360   0031F4  0012               	return		;funcret
  7361   0031F6                     __end_of_I2C_2_Master_Write:
  7362                           	callstack 0
  7363                           
  7364 ;; *************** function _I2C_2_Master_Stop *****************
  7365 ;; Defined at:
  7366 ;;		line 39 in file "i2c.c"
  7367 ;; Parameters:    Size  Location     Type
  7368 ;;		None
  7369 ;; Auto vars:     Size  Location     Type
  7370 ;;		None
  7371 ;; Return value:  Size  Location     Type
  7372 ;;                  1    wreg      void 
  7373 ;; Registers used:
  7374 ;;		wreg, status,2, status,0, cstack
  7375 ;; Tracked objects:
  7376 ;;		On entry : 0/0
  7377 ;;		On exit  : 0/0
  7378 ;;		Unchanged: 0/0
  7379 ;; Data sizes:     COMRAM   BANK0   BANK1   BANK2   BANK3   BANK4   BANK5   BANK6   BANK7   BANK8   BANK9  BANK10  BANK1
      +1  BANK12  BANK13
  7380 ;;      Params:         0       0       0       0       0       0       0       0       0       0       0       0       
      +0       0       0
  7381 ;;      Locals:         0       0       0       0       0       0       0       0       0       0       0       0       
      +0       0       0
  7382 ;;      Temps:          0       0       0       0       0       0       0       0       0       0       0       0       
      +0       0       0
  7383 ;;      Totals:         0       0       0       0       0       0       0       0       0       0       0       0       
      +0       0       0
  7384 ;;Total ram usage:        0 bytes
  7385 ;; Hardware stack levels used: 1
  7386 ;; Hardware stack levels required when called: 8
  7387 ;; This function calls:
  7388 ;;		_I2C_2_Master_Idle
  7389 ;; This function is called by:
  7390 ;;		_color_writetoaddr
  7391 ;;		_color_read_Red
  7392 ;;		_color_read_Green
  7393 ;;		_color_read_Blue
  7394 ;;		_color_read_Clear
  7395 ;;		_interrupts_clear_colorclick
  7396 ;; This function uses a non-reentrant model
  7397 ;;
  7398                           
  7399                           	psect	text45
  7400   00320C                     __ptext45:
  7401                           	callstack 0
  7402   00320C                     _I2C_2_Master_Stop:
  7403                           	callstack 20
  7404   00320C                     
  7405                           ;i2c.c: 41:   I2C_2_Master_Idle();
  7406   00320C  EC17  F018         	call	_I2C_2_Master_Idle	;wreg free
  7407   003210                     
  7408                           ;i2c.c: 42:   SSP2CON2bits.PEN = 1;
  7409   003210  010E               	movlb	14	; () banked
  7410   003212  85DA               	bsf	218,2,b	;volatile
  7411   003214                     
  7412                           ; BSR set to: 14
  7413   003214  0012               	return		;funcret
  7414   003216                     __end_of_I2C_2_Master_Stop:
  7415                           	callstack 0
  7416                           
  7417 ;; *************** function _I2C_2_Master_Start *****************
  7418 ;; Defined at:
  7419 ;;		line 27 in file "i2c.c"
  7420 ;; Parameters:    Size  Location     Type
  7421 ;;		None
  7422 ;; Auto vars:     Size  Location     Type
  7423 ;;		None
  7424 ;; Return value:  Size  Location     Type
  7425 ;;                  1    wreg      void 
  7426 ;; Registers used:
  7427 ;;		wreg, status,2, status,0, cstack
  7428 ;; Tracked objects:
  7429 ;;		On entry : 0/0
  7430 ;;		On exit  : 0/0
  7431 ;;		Unchanged: 0/0
  7432 ;; Data sizes:     COMRAM   BANK0   BANK1   BANK2   BANK3   BANK4   BANK5   BANK6   BANK7   BANK8   BANK9  BANK10  BANK1
      +1  BANK12  BANK13
  7433 ;;      Params:         0       0       0       0       0       0       0       0       0       0       0       0       
      +0       0       0
  7434 ;;      Locals:         0       0       0       0       0       0       0       0       0       0       0       0       
      +0       0       0
  7435 ;;      Temps:          0       0       0       0       0       0       0       0       0       0       0       0       
      +0       0       0
  7436 ;;      Totals:         0       0       0       0       0       0       0       0       0       0       0       0       
      +0       0       0
  7437 ;;Total ram usage:        0 bytes
  7438 ;; Hardware stack levels used: 1
  7439 ;; Hardware stack levels required when called: 8
  7440 ;; This function calls:
  7441 ;;		_I2C_2_Master_Idle
  7442 ;; This function is called by:
  7443 ;;		_color_writetoaddr
  7444 ;;		_color_read_Red
  7445 ;;		_color_read_Green
  7446 ;;		_color_read_Blue
  7447 ;;		_color_read_Clear
  7448 ;;		_interrupts_clear_colorclick
  7449 ;; This function uses a non-reentrant model
  7450 ;;
  7451                           
  7452                           	psect	text46
  7453   003216                     __ptext46:
  7454                           	callstack 0
  7455   003216                     _I2C_2_Master_Start:
  7456                           	callstack 20
  7457   003216                     
  7458                           ;i2c.c: 29:   I2C_2_Master_Idle();
  7459   003216  EC17  F018         	call	_I2C_2_Master_Idle	;wreg free
  7460   00321A                     
  7461                           ;i2c.c: 30:   SSP2CON2bits.SEN = 1;
  7462   00321A  010E               	movlb	14	; () banked
  7463   00321C  81DA               	bsf	218,0,b	;volatile
  7464   00321E                     
  7465                           ; BSR set to: 14
  7466   00321E  0012               	return		;funcret
  7467   003220                     __end_of_I2C_2_Master_Start:
  7468                           	callstack 0
  7469                           
  7470 ;; *************** function _I2C_2_Master_Idle *****************
  7471 ;; Defined at:
  7472 ;;		line 22 in file "i2c.c"
  7473 ;; Parameters:    Size  Location     Type
  7474 ;;		None
  7475 ;; Auto vars:     Size  Location     Type
  7476 ;;		None
  7477 ;; Return value:  Size  Location     Type
  7478 ;;                  1    wreg      void 
  7479 ;; Registers used:
  7480 ;;		wreg, status,2, status,0
  7481 ;; Tracked objects:
  7482 ;;		On entry : 0/0
  7483 ;;		On exit  : 0/0
  7484 ;;		Unchanged: 0/0
  7485 ;; Data sizes:     COMRAM   BANK0   BANK1   BANK2   BANK3   BANK4   BANK5   BANK6   BANK7   BANK8   BANK9  BANK10  BANK1
      +1  BANK12  BANK13
  7486 ;;      Params:         0       0       0       0       0       0       0       0       0       0       0       0       
      +0       0       0
  7487 ;;      Locals:         0       0       0       0       0       0       0       0       0       0       0       0       
      +0       0       0
  7488 ;;      Temps:          1       0       0       0       0       0       0       0       0       0       0       0       
      +0       0       0
  7489 ;;      Totals:         1       0       0       0       0       0       0       0       0       0       0       0       
      +0       0       0
  7490 ;;Total ram usage:        1 bytes
  7491 ;; Hardware stack levels used: 1
  7492 ;; Hardware stack levels required when called: 7
  7493 ;; This function calls:
  7494 ;;		Nothing
  7495 ;; This function is called by:
  7496 ;;		_I2C_2_Master_Start
  7497 ;;		_I2C_2_Master_RepStart
  7498 ;;		_I2C_2_Master_Stop
  7499 ;;		_I2C_2_Master_Write
  7500 ;;		_I2C_2_Master_Read
  7501 ;; This function uses a non-reentrant model
  7502 ;;
  7503                           
  7504                           	psect	text47
  7505   00302E                     __ptext47:
  7506                           	callstack 0
  7507   00302E                     _I2C_2_Master_Idle:
  7508                           	callstack 20
  7509   00302E                     l88:
  7510   00302E  010E               	movlb	14	; () banked
  7511   003030  B5D8               	btfsc	216,2,b	;volatile
  7512   003032  EF1D  F018         	goto	u3941
  7513   003036  EF1F  F018         	goto	u3940
  7514   00303A                     u3941:
  7515   00303A  EF17  F018         	goto	l88
  7516   00303E                     u3940:
  7517   00303E                     
  7518                           ; BSR set to: 14
  7519   00303E  CEDA F00C          	movff	3802,??_I2C_2_Master_Idle	;volatile
  7520   003042  0E1F               	movlw	31
  7521   003044  160C               	andwf	??_I2C_2_Master_Idle^0,f,c
  7522   003046  A4D8               	btfss	status,2,c
  7523   003048  EF28  F018         	goto	u3951
  7524   00304C  EF2A  F018         	goto	u3950
  7525   003050                     u3951:
  7526   003050  EF17  F018         	goto	l88
  7527   003054                     u3950:
  7528   003054                     
  7529                           ; BSR set to: 14
  7530   003054  0012               	return		;funcret
  7531   003056                     __end_of_I2C_2_Master_Idle:
  7532                           	callstack 0
  7533                           
  7534 ;; *************** function _LowISR *****************
  7535 ;; Defined at:
  7536 ;;		line 74 in file "interrupts.c"
  7537 ;; Parameters:    Size  Location     Type
  7538 ;;		None
  7539 ;; Auto vars:     Size  Location     Type
  7540 ;;		None
  7541 ;; Return value:  Size  Location     Type
  7542 ;;                  1    wreg      void 
  7543 ;; Registers used:
  7544 ;;		wreg, status,2
  7545 ;; Tracked objects:
  7546 ;;		On entry : 0/0
  7547 ;;		On exit  : 0/0
  7548 ;;		Unchanged: 0/0
  7549 ;; Data sizes:     COMRAM   BANK0   BANK1   BANK2   BANK3   BANK4   BANK5   BANK6   BANK7   BANK8   BANK9  BANK10  BANK1
      +1  BANK12  BANK13
  7550 ;;      Params:         0       0       0       0       0       0       0       0       0       0       0       0       
      +0       0       0
  7551 ;;      Locals:         0       0       0       0       0       0       0       0       0       0       0       0       
      +0       0       0
  7552 ;;      Temps:          3       0       0       0       0       0       0       0       0       0       0       0       
      +0       0       0
  7553 ;;      Totals:         3       0       0       0       0       0       0       0       0       0       0       0       
      +0       0       0
  7554 ;;Total ram usage:        3 bytes
  7555 ;; Hardware stack levels used: 1
  7556 ;; Hardware stack levels required when called: 6
  7557 ;; This function calls:
  7558 ;;		Nothing
  7559 ;; This function is called by:
  7560 ;;		Interrupt level 1
  7561 ;; This function uses a non-reentrant model
  7562 ;;
  7563                           
  7564                           	psect	intcodelo
  7565   000018                     __pintcodelo:
  7566                           	callstack 0
  7567   000018                     _LowISR:
  7568                           	callstack 16
  7569                           
  7570                           ; BSR set to: 14
  7571                           ;incstack = 0
  7572   000018  8054               	bsf	int$flags,0,c	;set compiler interrupt flag (level 1)
  7573   00001A  CFD8 F009          	movff	status,??_LowISR
  7574   00001E  CFE8 F00A          	movff	wreg,??_LowISR+1
  7575   000022  CFE0 F00B          	movff	bsr,??_LowISR+2
  7576   000026                     
  7577                           ;interrupts.c: 77:     if(PIR0bits.TMR0IF){
  7578   000026  010E               	movlb	14	; () banked
  7579   000028  AB33               	btfss	51,5,b	;volatile
  7580   00002A  EF19  F000         	goto	i1u382_21
  7581   00002E  EF1B  F000         	goto	i1u382_20
  7582   000032                     i1u382_21:
  7583   000032  EF24  F000         	goto	i1l391
  7584   000036                     i1u382_20:
  7585   000036                     
  7586                           ; BSR set to: 14
  7587                           ;interrupts.c: 78:         TMR0H = 0b11000010;
  7588   000036  0EC2               	movlw	194
  7589   000038  6ED4               	movwf	212,c	;volatile
  7590                           
  7591                           ;interrupts.c: 79:         TMR0L = 0b11110110;
  7592   00003A  0EF6               	movlw	246
  7593   00003C  6ED3               	movwf	211,c	;volatile
  7594                           
  7595                           ;interrupts.c: 80:         tmr_ovf = 1;
  7596   00003E  0E01               	movlw	1
  7597   000040  0100               	movlb	0	; () banked
  7598   000042  6FB4               	movwf	_tmr_ovf& (0+255),b
  7599   000044                     
  7600                           ; BSR set to: 0
  7601                           ;interrupts.c: 81:         PIR0bits.TMR0IF=0;
  7602   000044  010E               	movlb	14	; () banked
  7603   000046  9B33               	bcf	51,5,b	;volatile
  7604   000048                     i1l391:
  7605                           
  7606                           ; BSR set to: 14
  7607   000048  C00B  FFE0         	movff	??_LowISR+2,bsr
  7608   00004C  C00A  FFE8         	movff	??_LowISR+1,wreg
  7609   000050  C009  FFD8         	movff	??_LowISR,status
  7610   000054  9054               	bcf	int$flags,0,c	;clear compiler interrupt flag (level 1)
  7611   000056  0010               	retfie	
  7612   000058                     __end_of_LowISR:
  7613                           	callstack 0
  7614                           
  7615 ;; *************** function _HighISR *****************
  7616 ;; Defined at:
  7617 ;;		line 88 in file "interrupts.c"
  7618 ;; Parameters:    Size  Location     Type
  7619 ;;		None
  7620 ;; Auto vars:     Size  Location     Type
  7621 ;;  a               1    7[COMRAM] unsigned char 
  7622 ;; Return value:  Size  Location     Type
  7623 ;;                  1    wreg      void 
  7624 ;; Registers used:
  7625 ;;		wreg, fsr2l, fsr2h, status,2, status,0, cstack
  7626 ;; Tracked objects:
  7627 ;;		On entry : 0/0
  7628 ;;		On exit  : 0/0
  7629 ;;		Unchanged: 0/0
  7630 ;; Data sizes:     COMRAM   BANK0   BANK1   BANK2   BANK3   BANK4   BANK5   BANK6   BANK7   BANK8   BANK9  BANK10  BANK1
      +1  BANK12  BANK13
  7631 ;;      Params:         0       0       0       0       0       0       0       0       0       0       0       0       
      +0       0       0
  7632 ;;      Locals:         1       0       0       0       0       0       0       0       0       0       0       0       
      +0       0       0
  7633 ;;      Temps:          2       0       0       0       0       0       0       0       0       0       0       0       
      +0       0       0
  7634 ;;      Totals:         3       0       0       0       0       0       0       0       0       0       0       0       
      +0       0       0
  7635 ;;Total ram usage:        3 bytes
  7636 ;; Hardware stack levels used: 1
  7637 ;; Hardware stack levels required when called: 5
  7638 ;; This function calls:
  7639 ;;		_getCharFromTxBuf
  7640 ;;		_putCharToRxBuf
  7641 ;;		i2_interrupts_clear_colorclick
  7642 ;;		i2_isDataInTxBuf
  7643 ;; This function is called by:
  7644 ;;		Interrupt level 2
  7645 ;; This function uses a non-reentrant model
  7646 ;;
  7647                           
  7648                           	psect	intcode
  7649   000008                     __pintcode:
  7650                           	callstack 0
  7651   000008                     _HighISR:
  7652                           	callstack 16
  7653                           
  7654                           ; BSR set to: 14
  7655                           ;incstack = 0
  7656   000008  8254               	bsf	int$flags,1,c	;set compiler interrupt flag (level 2)
  7657   00000A  EF0E  F015         	goto	int_func
  7658                           
  7659                           	psect	intcode_body
  7660   002A1C                     __pintcode_body:
  7661                           	callstack 16
  7662   002A1C                     int_func:
  7663                           	callstack 16
  7664   002A1C  CFD9 F006          	movff	fsr2l,??_HighISR
  7665   002A20  CFDA F007          	movff	fsr2h,??_HighISR+1
  7666   002A24                     
  7667                           ;interrupts.c: 95:     if(PIR4bits.RC4IF){
  7668   002A24  010E               	movlb	14	; () banked
  7669   002A26  A737               	btfss	55,3,b	;volatile
  7670   002A28  EF18  F015         	goto	i2u383_41
  7671   002A2C  EF1A  F015         	goto	i2u383_40
  7672   002A30                     i2u383_41:
  7673   002A30  EF1F  F015         	goto	i2l3690
  7674   002A34                     i2u383_40:
  7675   002A34                     
  7676                           ; BSR set to: 14
  7677                           ;interrupts.c: 96:         unsigned char a = RC4REG;
  7678   002A34  CEE3 F008          	movff	3811,HighISR@a	;volatile
  7679   002A38                     
  7680                           ; BSR set to: 14
  7681                           ;interrupts.c: 97:         putCharToRxBuf(a);
  7682   002A38  5008               	movf	HighISR@a^0,w,c
  7683   002A3A  EC02  F018         	call	_putCharToRxBuf
  7684   002A3E                     i2l3690:
  7685                           
  7686                           ;interrupts.c: 101:     if(!isDataInTxBuf()){
  7687   002A3E  ECE3  F018         	call	i2_isDataInTxBuf	;wreg free
  7688   002A42  0900               	iorlw	0
  7689   002A44  A4D8               	btfss	status,2,c
  7690   002A46  EF27  F015         	goto	i2u384_41
  7691   002A4A  EF29  F015         	goto	i2u384_40
  7692   002A4E                     i2u384_41:
  7693   002A4E  EF2B  F015         	goto	i2l399
  7694   002A52                     i2u384_40:
  7695   002A52                     
  7696                           ;interrupts.c: 102:         PIE4bits.TX4IE=0;
  7697   002A52  010E               	movlb	14	; () banked
  7698   002A54  952D               	bcf	45,2,b	;volatile
  7699   002A56                     i2l399:
  7700                           
  7701                           ;interrupts.c: 104:     if(PIR4bits.TX4IF){
  7702   002A56  010E               	movlb	14	; () banked
  7703   002A58  A537               	btfss	55,2,b	;volatile
  7704   002A5A  EF31  F015         	goto	i2u385_41
  7705   002A5E  EF33  F015         	goto	i2u385_40
  7706   002A62                     i2u385_41:
  7707   002A62  EF37  F015         	goto	i2l3696
  7708   002A66                     i2u385_40:
  7709   002A66                     
  7710                           ; BSR set to: 14
  7711                           ;interrupts.c: 105:         TX4REG = getCharFromTxBuf();
  7712   002A66  ECC2  F017         	call	_getCharFromTxBuf	;wreg free
  7713   002A6A  010E               	movlb	14	; () banked
  7714   002A6C  6FE4               	movwf	228,b	;volatile
  7715   002A6E                     i2l3696:
  7716                           
  7717                           ; BSR set to: 14
  7718                           ;interrupts.c: 112:     if(PIR0bits.INT1IF){
  7719   002A6E  A333               	btfss	51,1,b	;volatile
  7720   002A70  EF3C  F015         	goto	i2u386_41
  7721   002A74  EF3E  F015         	goto	i2u386_40
  7722   002A78                     i2u386_41:
  7723   002A78  EF45  F015         	goto	i2l402
  7724   002A7C                     i2u386_40:
  7725   002A7C                     
  7726                           ; BSR set to: 14
  7727                           ;interrupts.c: 113:         color_flag = 1;
  7728   002A7C  0E01               	movlw	1
  7729   002A7E  0100               	movlb	0	; () banked
  7730   002A80  6FB5               	movwf	_color_flag& (0+255),b
  7731   002A82                     
  7732                           ; BSR set to: 0
  7733                           ;interrupts.c: 115:         interrupts_clear_colorclick();
  7734   002A82  ECBE  F018         	call	i2_interrupts_clear_colorclick	;wreg free
  7735   002A86                     
  7736                           ;interrupts.c: 116:         PIR0bits.INT1IF = 0;
  7737   002A86  010E               	movlb	14	; () banked
  7738   002A88  9333               	bcf	51,1,b	;volatile
  7739   002A8A                     i2l402:
  7740                           
  7741                           ; BSR set to: 14
  7742   002A8A  C007  FFDA         	movff	??_HighISR+1,fsr2h
  7743   002A8E  C006  FFD9         	movff	??_HighISR,fsr2l
  7744   002A92  9254               	bcf	int$flags,1,c	;clear compiler interrupt flag (level 2)
  7745   002A94  0011               	retfie		f
  7746   002A96                     __end_of_HighISR:
  7747                           	callstack 0
  7748                           
  7749 ;; *************** function i2_isDataInTxBuf *****************
  7750 ;; Defined at:
  7751 ;;		line 82 in file "serial.c"
  7752 ;; Parameters:    Size  Location     Type
  7753 ;;		None
  7754 ;; Auto vars:     Size  Location     Type
  7755 ;;		None
  7756 ;; Return value:  Size  Location     Type
  7757 ;;                  1    wreg      unsigned char 
  7758 ;; Registers used:
  7759 ;;		wreg, status,2, status,0
  7760 ;; Tracked objects:
  7761 ;;		On entry : 0/0
  7762 ;;		On exit  : 0/0
  7763 ;;		Unchanged: 0/0
  7764 ;; Data sizes:     COMRAM   BANK0   BANK1   BANK2   BANK3   BANK4   BANK5   BANK6   BANK7   BANK8   BANK9  BANK10  BANK1
      +1  BANK12  BANK13
  7765 ;;      Params:         0       0       0       0       0       0       0       0       0       0       0       0       
      +0       0       0
  7766 ;;      Locals:         0       0       0       0       0       0       0       0       0       0       0       0       
      +0       0       0
  7767 ;;      Temps:          0       0       0       0       0       0       0       0       0       0       0       0       
      +0       0       0
  7768 ;;      Totals:         0       0       0       0       0       0       0       0       0       0       0       0       
      +0       0       0
  7769 ;;Total ram usage:        0 bytes
  7770 ;; Hardware stack levels used: 1
  7771 ;; This function calls:
  7772 ;;		Nothing
  7773 ;; This function is called by:
  7774 ;;		_HighISR
  7775 ;; This function uses a non-reentrant model
  7776 ;;
  7777                           
  7778                           	psect	text50
  7779   0031C6                     __ptext50:
  7780                           	callstack 0
  7781   0031C6                     i2_isDataInTxBuf:
  7782                           	callstack 20
  7783   0031C6                     
  7784                           ;serial.c: 83:     return (TxBufWriteCnt!=TxBufReadCnt);
  7785   0031C6  504E               	movf	_TxBufReadCnt^0,w,c	;volatile
  7786   0031C8  184F               	xorwf	_TxBufWriteCnt^0,w,c	;volatile
  7787   0031CA  A4D8               	btfss	status,2,c
  7788   0031CC  EFEA  F018         	goto	i2u374_41
  7789   0031D0  EFED  F018         	goto	i2u374_40
  7790   0031D4                     i2u374_41:
  7791   0031D4  0E01               	movlw	1
  7792   0031D6  EFEE  F018         	goto	i2u375_40
  7793   0031DA                     i2u374_40:
  7794   0031DA  0E00               	movlw	0
  7795   0031DC                     i2u375_40:
  7796   0031DC  0012               	return		;funcret
  7797   0031DE                     __end_ofi2_isDataInTxBuf:
  7798                           	callstack 0
  7799                           
  7800 ;; *************** function i2_interrupts_clear_colorclick *****************
  7801 ;; Defined at:
  7802 ;;		line 57 in file "interrupts.c"
  7803 ;; Parameters:    Size  Location     Type
  7804 ;;		None
  7805 ;; Auto vars:     Size  Location     Type
  7806 ;;		None
  7807 ;; Return value:  Size  Location     Type
  7808 ;;                  1    wreg      void 
  7809 ;; Registers used:
  7810 ;;		wreg, status,2, status,0, cstack
  7811 ;; Tracked objects:
  7812 ;;		On entry : 0/0
  7813 ;;		On exit  : 0/0
  7814 ;;		Unchanged: 0/0
  7815 ;; Data sizes:     COMRAM   BANK0   BANK1   BANK2   BANK3   BANK4   BANK5   BANK6   BANK7   BANK8   BANK9  BANK10  BANK1
      +1  BANK12  BANK13
  7816 ;;      Params:         0       0       0       0       0       0       0       0       0       0       0       0       
      +0       0       0
  7817 ;;      Locals:         0       0       0       0       0       0       0       0       0       0       0       0       
      +0       0       0
  7818 ;;      Temps:          0       0       0       0       0       0       0       0       0       0       0       0       
      +0       0       0
  7819 ;;      Totals:         0       0       0       0       0       0       0       0       0       0       0       0       
      +0       0       0
  7820 ;;Total ram usage:        0 bytes
  7821 ;; Hardware stack levels used: 1
  7822 ;; Hardware stack levels required when called: 4
  7823 ;; This function calls:
  7824 ;;		i2_I2C_2_Master_Start
  7825 ;;		i2_I2C_2_Master_Stop
  7826 ;;		i2_I2C_2_Master_Write
  7827 ;;		i2_init_colorclick_interrupts
  7828 ;; This function is called by:
  7829 ;;		_HighISR
  7830 ;; This function uses a non-reentrant model
  7831 ;;
  7832                           
  7833                           	psect	text51
  7834   00317C                     __ptext51:
  7835                           	callstack 0
  7836   00317C                     i2_interrupts_clear_colorclick:
  7837                           	callstack 16
  7838   00317C                     
  7839                           ;interrupts.c: 59:     I2C_2_Master_Start();
  7840   00317C  EC15  F019         	call	i2_I2C_2_Master_Start	;wreg free
  7841                           
  7842                           ;interrupts.c: 60:     I2C_2_Master_Write(0x52 | 0x00);
  7843   003180  0E52               	movlw	82
  7844   003182  ECFB  F018         	call	i2_I2C_2_Master_Write
  7845                           
  7846                           ;interrupts.c: 61:     I2C_2_Master_Write(0b11100110);
  7847   003186  0EE6               	movlw	230
  7848   003188  ECFB  F018         	call	i2_I2C_2_Master_Write
  7849                           
  7850                           ;interrupts.c: 62:     I2C_2_Master_Stop();
  7851   00318C  EC10  F019         	call	i2_I2C_2_Master_Stop	;wreg free
  7852                           
  7853                           ;interrupts.c: 64:     init_colorclick_interrupts();
  7854   003190  EC94  F016         	call	i2_init_colorclick_interrupts	;wreg free
  7855   003194  0012               	return		;funcret
  7856   003196                     __end_ofi2_interrupts_clear_colorclick:
  7857                           	callstack 0
  7858                           
  7859 ;; *************** function i2_init_colorclick_interrupts *****************
  7860 ;; Defined at:
  7861 ;;		line 43 in file "interrupts.c"
  7862 ;; Parameters:    Size  Location     Type
  7863 ;;		None
  7864 ;; Auto vars:     Size  Location     Type
  7865 ;;		None
  7866 ;; Return value:  Size  Location     Type
  7867 ;;                  1    wreg      void 
  7868 ;; Registers used:
  7869 ;;		wreg, status,2, status,0, cstack
  7870 ;; Tracked objects:
  7871 ;;		On entry : 0/0
  7872 ;;		On exit  : 0/0
  7873 ;;		Unchanged: 0/0
  7874 ;; Data sizes:     COMRAM   BANK0   BANK1   BANK2   BANK3   BANK4   BANK5   BANK6   BANK7   BANK8   BANK9  BANK10  BANK1
      +1  BANK12  BANK13
  7875 ;;      Params:         0       0       0       0       0       0       0       0       0       0       0       0       
      +0       0       0
  7876 ;;      Locals:         0       0       0       0       0       0       0       0       0       0       0       0       
      +0       0       0
  7877 ;;      Temps:          1       0       0       0       0       0       0       0       0       0       0       0       
      +0       0       0
  7878 ;;      Totals:         1       0       0       0       0       0       0       0       0       0       0       0       
      +0       0       0
  7879 ;;Total ram usage:        1 bytes
  7880 ;; Hardware stack levels used: 1
  7881 ;; Hardware stack levels required when called: 3
  7882 ;; This function calls:
  7883 ;;		i2_color_writetoaddr
  7884 ;; This function is called by:
  7885 ;;		i2_interrupts_clear_colorclick
  7886 ;; This function uses a non-reentrant model
  7887 ;;
  7888                           
  7889                           	psect	text52
  7890   002D28                     __ptext52:
  7891                           	callstack 0
  7892   002D28                     i2_init_colorclick_interrupts:
  7893                           	callstack 16
  7894   002D28                     
  7895                           ;interrupts.c: 45:     color_writetoaddr(0x00,0b10011);
  7896   002D28  0E13               	movlw	19
  7897   002D2A  6E03               	movwf	i2color_writetoaddr@value^0,c
  7898   002D2C  0E00               	movlw	0
  7899   002D2E  EC85  F018         	call	i2_color_writetoaddr
  7900   002D32                     
  7901                           ;interrupts.c: 46:     _delay((unsigned long)((3)*(64000000/4000.0)));
  7902   002D32  0E3F               	movlw	63
  7903   002D34  6E05               	movwf	??i2_init_colorclick_interrupts^0,c
  7904   002D36  0E55               	movlw	85
  7905   002D38                     i2u576_47:
  7906   002D38  2EE8               	decfsz	wreg,f,c
  7907   002D3A  D7FE               	bra	i2u576_47
  7908   002D3C  2E05               	decfsz	??i2_init_colorclick_interrupts^0,f,c
  7909   002D3E  D7FC               	bra	i2u576_47
  7910   002D40  F000               	nop	
  7911   002D42                     
  7912                           ;interrupts.c: 48:     color_writetoaddr(0x0C,0b0100);
  7913   002D42  0E04               	movlw	4
  7914   002D44  6E03               	movwf	i2color_writetoaddr@value^0,c
  7915   002D46  0E0C               	movlw	12
  7916   002D48  EC85  F018         	call	i2_color_writetoaddr
  7917   002D4C                     
  7918                           ;interrupts.c: 49:     color_writetoaddr(0x04,(int_threshold_low & 0xFF));
  7919   002D4C  C04B  F003         	movff	_int_threshold_low,i2color_writetoaddr@value
  7920   002D50  0E04               	movlw	4
  7921   002D52  EC85  F018         	call	i2_color_writetoaddr
  7922   002D56                     
  7923                           ;interrupts.c: 50:     color_writetoaddr(0x05,(int_threshold_low >> 8));
  7924   002D56  504C               	movf	(_int_threshold_low+1)^0,w,c
  7925   002D58  6E03               	movwf	i2color_writetoaddr@value^0,c
  7926   002D5A  0E05               	movlw	5
  7927   002D5C  EC85  F018         	call	i2_color_writetoaddr
  7928   002D60                     
  7929                           ;interrupts.c: 51:     color_writetoaddr(0x06,(int_threshold_high & 0xFF));
  7930   002D60  C052  F003         	movff	_int_threshold_high,i2color_writetoaddr@value
  7931   002D64  0E06               	movlw	6
  7932   002D66  EC85  F018         	call	i2_color_writetoaddr
  7933   002D6A                     
  7934                           ;interrupts.c: 52:     color_writetoaddr(0x07,(int_threshold_high >> 8));
  7935   002D6A  5053               	movf	(_int_threshold_high+1)^0,w,c
  7936   002D6C  6E03               	movwf	i2color_writetoaddr@value^0,c
  7937   002D6E  0E07               	movlw	7
  7938   002D70  EC85  F018         	call	i2_color_writetoaddr
  7939   002D74  0012               	return		;funcret
  7940   002D76                     __end_ofi2_init_colorclick_interrupts:
  7941                           	callstack 0
  7942                           
  7943 ;; *************** function i2_color_writetoaddr *****************
  7944 ;; Defined at:
  7945 ;;		line 22 in file "color.c"
  7946 ;; Parameters:    Size  Location     Type
  7947 ;;  address         1    wreg     unsigned char 
  7948 ;;  value           1    2[COMRAM] unsigned char 
  7949 ;; Auto vars:     Size  Location     Type
  7950 ;;  address         1    3[COMRAM] unsigned char 
  7951 ;; Return value:  Size  Location     Type
  7952 ;;                  1    wreg      void 
  7953 ;; Registers used:
  7954 ;;		wreg, status,2, status,0, cstack
  7955 ;; Tracked objects:
  7956 ;;		On entry : 0/0
  7957 ;;		On exit  : 0/0
  7958 ;;		Unchanged: 0/0
  7959 ;; Data sizes:     COMRAM   BANK0   BANK1   BANK2   BANK3   BANK4   BANK5   BANK6   BANK7   BANK8   BANK9  BANK10  BANK1
      +1  BANK12  BANK13
  7960 ;;      Params:         1       0       0       0       0       0       0       0       0       0       0       0       
      +0       0       0
  7961 ;;      Locals:         1       0       0       0       0       0       0       0       0       0       0       0       
      +0       0       0
  7962 ;;      Temps:          0       0       0       0       0       0       0       0       0       0       0       0       
      +0       0       0
  7963 ;;      Totals:         2       0       0       0       0       0       0       0       0       0       0       0       
      +0       0       0
  7964 ;;Total ram usage:        2 bytes
  7965 ;; Hardware stack levels used: 1
  7966 ;; Hardware stack levels required when called: 2
  7967 ;; This function calls:
  7968 ;;		i2_I2C_2_Master_Start
  7969 ;;		i2_I2C_2_Master_Stop
  7970 ;;		i2_I2C_2_Master_Write
  7971 ;; This function is called by:
  7972 ;;		i2_init_colorclick_interrupts
  7973 ;; This function uses a non-reentrant model
  7974 ;;
  7975                           
  7976                           	psect	text53
  7977   00310A                     __ptext53:
  7978                           	callstack 0
  7979   00310A                     i2_color_writetoaddr:
  7980                           	callstack 16
  7981                           
  7982                           ;incstack = 0
  7983                           ;i2color_writetoaddr@address stored from wreg
  7984   00310A  6E04               	movwf	i2color_writetoaddr@address^0,c
  7985   00310C                     
  7986                           ;color.c: 23:     I2C_2_Master_Start();
  7987   00310C  EC15  F019         	call	i2_I2C_2_Master_Start	;wreg free
  7988                           
  7989                           ;color.c: 24:     I2C_2_Master_Write(0x52 | 0x00);
  7990   003110  0E52               	movlw	82
  7991   003112  ECFB  F018         	call	i2_I2C_2_Master_Write
  7992                           
  7993                           ;color.c: 25:     I2C_2_Master_Write(0x80 | address);
  7994   003116  5004               	movf	i2color_writetoaddr@address^0,w,c
  7995   003118  0980               	iorlw	128
  7996   00311A  ECFB  F018         	call	i2_I2C_2_Master_Write
  7997                           
  7998                           ;color.c: 26:     I2C_2_Master_Write(value);
  7999   00311E  5003               	movf	i2color_writetoaddr@value^0,w,c
  8000   003120  ECFB  F018         	call	i2_I2C_2_Master_Write
  8001                           
  8002                           ;color.c: 27:     I2C_2_Master_Stop();
  8003   003124  EC10  F019         	call	i2_I2C_2_Master_Stop	;wreg free
  8004   003128  0012               	return		;funcret
  8005   00312A                     __end_ofi2_color_writetoaddr:
  8006                           	callstack 0
  8007                           
  8008 ;; *************** function i2_I2C_2_Master_Write *****************
  8009 ;; Defined at:
  8010 ;;		line 45 in file "i2c.c"
  8011 ;; Parameters:    Size  Location     Type
  8012 ;;  data_byte       1    wreg     unsigned char 
  8013 ;; Auto vars:     Size  Location     Type
  8014 ;;  data_byte       1    1[COMRAM] unsigned char 
  8015 ;; Return value:  Size  Location     Type
  8016 ;;                  1    wreg      void 
  8017 ;; Registers used:
  8018 ;;		wreg, status,2, status,0, cstack
  8019 ;; Tracked objects:
  8020 ;;		On entry : 0/0
  8021 ;;		On exit  : 0/0
  8022 ;;		Unchanged: 0/0
  8023 ;; Data sizes:     COMRAM   BANK0   BANK1   BANK2   BANK3   BANK4   BANK5   BANK6   BANK7   BANK8   BANK9  BANK10  BANK1
      +1  BANK12  BANK13
  8024 ;;      Params:         0       0       0       0       0       0       0       0       0       0       0       0       
      +0       0       0
  8025 ;;      Locals:         1       0       0       0       0       0       0       0       0       0       0       0       
      +0       0       0
  8026 ;;      Temps:          0       0       0       0       0       0       0       0       0       0       0       0       
      +0       0       0
  8027 ;;      Totals:         1       0       0       0       0       0       0       0       0       0       0       0       
      +0       0       0
  8028 ;;Total ram usage:        1 bytes
  8029 ;; Hardware stack levels used: 1
  8030 ;; Hardware stack levels required when called: 1
  8031 ;; This function calls:
  8032 ;;		i2_I2C_2_Master_Idle
  8033 ;; This function is called by:
  8034 ;;		i2_color_writetoaddr
  8035 ;;		i2_interrupts_clear_colorclick
  8036 ;; This function uses a non-reentrant model
  8037 ;;
  8038                           
  8039                           	psect	text54
  8040   0031F6                     __ptext54:
  8041                           	callstack 0
  8042   0031F6                     i2_I2C_2_Master_Write:
  8043                           	callstack 16
  8044                           
  8045                           ;incstack = 0
  8046                           ;i2I2C_2_Master_Write@data_byte stored from wreg
  8047   0031F6  6E02               	movwf	i2I2C_2_Master_Write@data_byte^0,c
  8048   0031F8                     
  8049                           ;i2c.c: 45: void I2C_2_Master_Write(unsigned char data_byte);i2c.c: 46: {;i2c.c: 47:   I
      +                          2C_2_Master_Idle();
  8050   0031F8  EC2B  F018         	call	i2_I2C_2_Master_Idle	;wreg free
  8051   0031FC                     
  8052                           ;i2c.c: 48:   SSP2BUF = data_byte;
  8053   0031FC  C002  FED5         	movff	i2I2C_2_Master_Write@data_byte,3797	;volatile
  8054   003200  0012               	return		;funcret
  8055   003202                     __end_ofi2_I2C_2_Master_Write:
  8056                           	callstack 0
  8057                           
  8058 ;; *************** function i2_I2C_2_Master_Stop *****************
  8059 ;; Defined at:
  8060 ;;		line 39 in file "i2c.c"
  8061 ;; Parameters:    Size  Location     Type
  8062 ;;		None
  8063 ;; Auto vars:     Size  Location     Type
  8064 ;;		None
  8065 ;; Return value:  Size  Location     Type
  8066 ;;                  1    wreg      void 
  8067 ;; Registers used:
  8068 ;;		wreg, status,2, status,0, cstack
  8069 ;; Tracked objects:
  8070 ;;		On entry : 0/0
  8071 ;;		On exit  : 0/0
  8072 ;;		Unchanged: 0/0
  8073 ;; Data sizes:     COMRAM   BANK0   BANK1   BANK2   BANK3   BANK4   BANK5   BANK6   BANK7   BANK8   BANK9  BANK10  BANK1
      +1  BANK12  BANK13
  8074 ;;      Params:         0       0       0       0       0       0       0       0       0       0       0       0       
      +0       0       0
  8075 ;;      Locals:         0       0       0       0       0       0       0       0       0       0       0       0       
      +0       0       0
  8076 ;;      Temps:          0       0       0       0       0       0       0       0       0       0       0       0       
      +0       0       0
  8077 ;;      Totals:         0       0       0       0       0       0       0       0       0       0       0       0       
      +0       0       0
  8078 ;;Total ram usage:        0 bytes
  8079 ;; Hardware stack levels used: 1
  8080 ;; Hardware stack levels required when called: 1
  8081 ;; This function calls:
  8082 ;;		i2_I2C_2_Master_Idle
  8083 ;; This function is called by:
  8084 ;;		i2_color_writetoaddr
  8085 ;;		i2_interrupts_clear_colorclick
  8086 ;; This function uses a non-reentrant model
  8087 ;;
  8088                           
  8089                           	psect	text55
  8090   003220                     __ptext55:
  8091                           	callstack 0
  8092   003220                     i2_I2C_2_Master_Stop:
  8093                           	callstack 16
  8094   003220                     
  8095                           ;i2c.c: 41:   I2C_2_Master_Idle();
  8096   003220  EC2B  F018         	call	i2_I2C_2_Master_Idle	;wreg free
  8097   003224                     
  8098                           ;i2c.c: 42:   SSP2CON2bits.PEN = 1;
  8099   003224  010E               	movlb	14	; () banked
  8100   003226  85DA               	bsf	218,2,b	;volatile
  8101   003228                     
  8102                           ; BSR set to: 14
  8103   003228  0012               	return		;funcret
  8104   00322A                     __end_ofi2_I2C_2_Master_Stop:
  8105                           	callstack 0
  8106                           
  8107 ;; *************** function i2_I2C_2_Master_Start *****************
  8108 ;; Defined at:
  8109 ;;		line 27 in file "i2c.c"
  8110 ;; Parameters:    Size  Location     Type
  8111 ;;		None
  8112 ;; Auto vars:     Size  Location     Type
  8113 ;;		None
  8114 ;; Return value:  Size  Location     Type
  8115 ;;                  1    wreg      void 
  8116 ;; Registers used:
  8117 ;;		wreg, status,2, status,0, cstack
  8118 ;; Tracked objects:
  8119 ;;		On entry : 0/0
  8120 ;;		On exit  : 0/0
  8121 ;;		Unchanged: 0/0
  8122 ;; Data sizes:     COMRAM   BANK0   BANK1   BANK2   BANK3   BANK4   BANK5   BANK6   BANK7   BANK8   BANK9  BANK10  BANK1
      +1  BANK12  BANK13
  8123 ;;      Params:         0       0       0       0       0       0       0       0       0       0       0       0       
      +0       0       0
  8124 ;;      Locals:         0       0       0       0       0       0       0       0       0       0       0       0       
      +0       0       0
  8125 ;;      Temps:          0       0       0       0       0       0       0       0       0       0       0       0       
      +0       0       0
  8126 ;;      Totals:         0       0       0       0       0       0       0       0       0       0       0       0       
      +0       0       0
  8127 ;;Total ram usage:        0 bytes
  8128 ;; Hardware stack levels used: 1
  8129 ;; Hardware stack levels required when called: 1
  8130 ;; This function calls:
  8131 ;;		i2_I2C_2_Master_Idle
  8132 ;; This function is called by:
  8133 ;;		i2_color_writetoaddr
  8134 ;;		i2_interrupts_clear_colorclick
  8135 ;; This function uses a non-reentrant model
  8136 ;;
  8137                           
  8138                           	psect	text56
  8139   00322A                     __ptext56:
  8140                           	callstack 0
  8141   00322A                     i2_I2C_2_Master_Start:
  8142                           	callstack 16
  8143   00322A                     
  8144                           ;i2c.c: 29:   I2C_2_Master_Idle();
  8145   00322A  EC2B  F018         	call	i2_I2C_2_Master_Idle	;wreg free
  8146   00322E                     
  8147                           ;i2c.c: 30:   SSP2CON2bits.SEN = 1;
  8148   00322E  010E               	movlb	14	; () banked
  8149   003230  81DA               	bsf	218,0,b	;volatile
  8150   003232                     
  8151                           ; BSR set to: 14
  8152   003232  0012               	return		;funcret
  8153   003234                     __end_ofi2_I2C_2_Master_Start:
  8154                           	callstack 0
  8155                           
  8156 ;; *************** function i2_I2C_2_Master_Idle *****************
  8157 ;; Defined at:
  8158 ;;		line 22 in file "i2c.c"
  8159 ;; Parameters:    Size  Location     Type
  8160 ;;		None
  8161 ;; Auto vars:     Size  Location     Type
  8162 ;;		None
  8163 ;; Return value:  Size  Location     Type
  8164 ;;                  1    wreg      void 
  8165 ;; Registers used:
  8166 ;;		wreg, status,2, status,0
  8167 ;; Tracked objects:
  8168 ;;		On entry : 0/0
  8169 ;;		On exit  : 0/0
  8170 ;;		Unchanged: 0/0
  8171 ;; Data sizes:     COMRAM   BANK0   BANK1   BANK2   BANK3   BANK4   BANK5   BANK6   BANK7   BANK8   BANK9  BANK10  BANK1
      +1  BANK12  BANK13
  8172 ;;      Params:         0       0       0       0       0       0       0       0       0       0       0       0       
      +0       0       0
  8173 ;;      Locals:         0       0       0       0       0       0       0       0       0       0       0       0       
      +0       0       0
  8174 ;;      Temps:          1       0       0       0       0       0       0       0       0       0       0       0       
      +0       0       0
  8175 ;;      Totals:         1       0       0       0       0       0       0       0       0       0       0       0       
      +0       0       0
  8176 ;;Total ram usage:        1 bytes
  8177 ;; Hardware stack levels used: 1
  8178 ;; This function calls:
  8179 ;;		Nothing
  8180 ;; This function is called by:
  8181 ;;		i2_I2C_2_Master_Start
  8182 ;;		i2_I2C_2_Master_Stop
  8183 ;;		i2_I2C_2_Master_Write
  8184 ;; This function uses a non-reentrant model
  8185 ;;
  8186                           
  8187                           	psect	text57
  8188   003056                     __ptext57:
  8189                           	callstack 0
  8190   003056                     i2_I2C_2_Master_Idle:
  8191                           	callstack 16
  8192   003056                     i2l88:
  8193   003056  010E               	movlb	14	; () banked
  8194   003058  B5D8               	btfsc	216,2,b	;volatile
  8195   00305A  EF31  F018         	goto	i2u226_41
  8196   00305E  EF33  F018         	goto	i2u226_40
  8197   003062                     i2u226_41:
  8198   003062  EF2B  F018         	goto	i2l88
  8199   003066                     i2u226_40:
  8200   003066                     
  8201                           ; BSR set to: 14
  8202   003066  CEDA F001          	movff	3802,??i2_I2C_2_Master_Idle	;volatile
  8203   00306A  0E1F               	movlw	31
  8204   00306C  1601               	andwf	??i2_I2C_2_Master_Idle^0,f,c
  8205   00306E  A4D8               	btfss	status,2,c
  8206   003070  EF3C  F018         	goto	i2u227_41
  8207   003074  EF3E  F018         	goto	i2u227_40
  8208   003078                     i2u227_41:
  8209   003078  EF2B  F018         	goto	i2l88
  8210   00307C                     i2u227_40:
  8211   00307C                     
  8212                           ; BSR set to: 14
  8213   00307C  0012               	return		;funcret
  8214   00307E                     __end_ofi2_I2C_2_Master_Idle:
  8215                           	callstack 0
  8216                           
  8217 ;; *************** function _putCharToRxBuf *****************
  8218 ;; Defined at:
  8219 ;;		line 54 in file "serial.c"
  8220 ;; Parameters:    Size  Location     Type
  8221 ;;  byte            1    wreg     unsigned char 
  8222 ;; Auto vars:     Size  Location     Type
  8223 ;;  byte            1    0[COMRAM] unsigned char 
  8224 ;; Return value:  Size  Location     Type
  8225 ;;                  1    wreg      void 
  8226 ;; Registers used:
  8227 ;;		wreg, fsr2l, fsr2h, status,2, status,0
  8228 ;; Tracked objects:
  8229 ;;		On entry : 0/0
  8230 ;;		On exit  : 0/0
  8231 ;;		Unchanged: 0/0
  8232 ;; Data sizes:     COMRAM   BANK0   BANK1   BANK2   BANK3   BANK4   BANK5   BANK6   BANK7   BANK8   BANK9  BANK10  BANK1
      +1  BANK12  BANK13
  8233 ;;      Params:         0       0       0       0       0       0       0       0       0       0       0       0       
      +0       0       0
  8234 ;;      Locals:         1       0       0       0       0       0       0       0       0       0       0       0       
      +0       0       0
  8235 ;;      Temps:          0       0       0       0       0       0       0       0       0       0       0       0       
      +0       0       0
  8236 ;;      Totals:         1       0       0       0       0       0       0       0       0       0       0       0       
      +0       0       0
  8237 ;;Total ram usage:        1 bytes
  8238 ;; Hardware stack levels used: 1
  8239 ;; This function calls:
  8240 ;;		Nothing
  8241 ;; This function is called by:
  8242 ;;		_HighISR
  8243 ;; This function uses a non-reentrant model
  8244 ;;
  8245                           
  8246                           	psect	text58
  8247   003004                     __ptext58:
  8248                           	callstack 0
  8249   003004                     _putCharToRxBuf:
  8250                           	callstack 20
  8251                           
  8252                           ; BSR set to: 14
  8253                           ;incstack = 0
  8254                           ;putCharToRxBuf@byte stored from wreg
  8255   003004  6E01               	movwf	putCharToRxBuf@byte^0,c
  8256   003006                     
  8257                           ;serial.c: 55:     if (RxBufWriteCnt>=20) {RxBufWriteCnt=0;}
  8258   003006  0E13               	movlw	19
  8259   003008  6451               	cpfsgt	_RxBufWriteCnt^0,c	;volatile
  8260   00300A  EF09  F018         	goto	i2u368_41
  8261   00300E  EF0B  F018         	goto	i2u368_40
  8262   003012                     i2u368_41:
  8263   003012  EF0D  F018         	goto	i2l3540
  8264   003016                     i2u368_40:
  8265   003016  0E00               	movlw	0
  8266   003018  6E51               	movwf	_RxBufWriteCnt^0,c	;volatile
  8267   00301A                     i2l3540:
  8268                           
  8269                           ;serial.c: 56:     EUSART4RXbuf[RxBufWriteCnt++]=byte;
  8270   00301A  0E9E               	movlw	low _EUSART4RXbuf
  8271   00301C  2451               	addwf	_RxBufWriteCnt^0,w,c	;volatile
  8272   00301E  6ED9               	movwf	fsr2l,c
  8273   003020  6ADA               	clrf	fsr2h,c
  8274   003022  0E00               	movlw	high _EUSART4RXbuf
  8275   003024  22DA               	addwfc	fsr2h,f,c
  8276   003026  C001  FFDF         	movff	putCharToRxBuf@byte,indf2
  8277   00302A  2A51               	incf	_RxBufWriteCnt^0,f,c	;volatile
  8278   00302C  0012               	return		;funcret
  8279   00302E                     __end_of_putCharToRxBuf:
  8280                           	callstack 0
  8281                           
  8282 ;; *************** function _getCharFromTxBuf *****************
  8283 ;; Defined at:
  8284 ;;		line 68 in file "serial.c"
  8285 ;; Parameters:    Size  Location     Type
  8286 ;;		None
  8287 ;; Auto vars:     Size  Location     Type
  8288 ;;		None
  8289 ;; Return value:  Size  Location     Type
  8290 ;;                  1    wreg      unsigned char 
  8291 ;; Registers used:
  8292 ;;		wreg, fsr2l, fsr2h, status,2, status,0
  8293 ;; Tracked objects:
  8294 ;;		On entry : 0/0
  8295 ;;		On exit  : 0/0
  8296 ;;		Unchanged: 0/0
  8297 ;; Data sizes:     COMRAM   BANK0   BANK1   BANK2   BANK3   BANK4   BANK5   BANK6   BANK7   BANK8   BANK9  BANK10  BANK1
      +1  BANK12  BANK13
  8298 ;;      Params:         0       0       0       0       0       0       0       0       0       0       0       0       
      +0       0       0
  8299 ;;      Locals:         0       0       0       0       0       0       0       0       0       0       0       0       
      +0       0       0
  8300 ;;      Temps:          2       0       0       0       0       0       0       0       0       0       0       0       
      +0       0       0
  8301 ;;      Totals:         2       0       0       0       0       0       0       0       0       0       0       0       
      +0       0       0
  8302 ;;Total ram usage:        2 bytes
  8303 ;; Hardware stack levels used: 1
  8304 ;; This function calls:
  8305 ;;		Nothing
  8306 ;; This function is called by:
  8307 ;;		_HighISR
  8308 ;; This function uses a non-reentrant model
  8309 ;;
  8310                           
  8311                           	psect	text59
  8312   002F84                     __ptext59:
  8313                           	callstack 0
  8314   002F84                     _getCharFromTxBuf:
  8315                           	callstack 20
  8316   002F84                     
  8317                           ;serial.c: 69:     if (TxBufReadCnt>=60) {TxBufReadCnt=0;}
  8318   002F84  0E3B               	movlw	59
  8319   002F86  644E               	cpfsgt	_TxBufReadCnt^0,c	;volatile
  8320   002F88  EFC8  F017         	goto	i2u371_41
  8321   002F8C  EFCA  F017         	goto	i2u371_40
  8322   002F90                     i2u371_41:
  8323   002F90  EFCC  F017         	goto	i2l3552
  8324   002F94                     i2u371_40:
  8325   002F94  0E00               	movlw	0
  8326   002F96  6E4E               	movwf	_TxBufReadCnt^0,c	;volatile
  8327   002F98                     i2l3552:
  8328                           
  8329                           ;serial.c: 70:     return EUSART4TXbuf[TxBufReadCnt++];
  8330   002F98  2A4E               	incf	_TxBufReadCnt^0,f,c	;volatile
  8331   002F9A  044E               	decf	_TxBufReadCnt^0,w,c	;volatile
  8332   002F9C  6E01               	movwf	??_getCharFromTxBuf^0,c
  8333   002F9E  6A02               	clrf	(??_getCharFromTxBuf+1)^0,c
  8334   002FA0  0E00               	movlw	low _EUSART4TXbuf
  8335   002FA2  2401               	addwf	??_getCharFromTxBuf^0,w,c
  8336   002FA4  6ED9               	movwf	fsr2l,c
  8337   002FA6  0E01               	movlw	high _EUSART4TXbuf
  8338   002FA8  2002               	addwfc	(??_getCharFromTxBuf+1)^0,w,c
  8339   002FAA  6EDA               	movwf	fsr2h,c
  8340   002FAC  50DF               	movf	indf2,w,c
  8341   002FAE  0012               	return		;funcret
  8342   002FB0                     __end_of_getCharFromTxBuf:
  8343                           	callstack 0
  8344                           
  8345                           	psect	rparam
  8346   000000                     
  8347                           	psect	temp
  8348   000054                     btemp:
  8349                           	callstack 0
  8350   000054                     	ds	1
  8351   000000                     int$flags	set	btemp
  8352   000000                     wtemp8	set	btemp+1
  8353   000000                     ttemp5	set	btemp+1
  8354   000000                     ttemp6	set	btemp+4
  8355   000000                     ttemp7	set	btemp+8
  8356                           
  8357                           	psect	idloc
  8358                           
  8359                           ;Config register IDLOC0 @ 0x200000
  8360                           ;	unspecified, using default values
  8361   200000                     	org	2097152
  8362   200000  0FFF               	dw	4095
  8363                           
  8364                           ;Config register IDLOC1 @ 0x200002
  8365                           ;	unspecified, using default values
  8366   200002                     	org	2097154
  8367   200002  0FFF               	dw	4095
  8368                           
  8369                           ;Config register IDLOC2 @ 0x200004
  8370                           ;	unspecified, using default values
  8371   200004                     	org	2097156
  8372   200004  0FFF               	dw	4095
  8373                           
  8374                           ;Config register IDLOC3 @ 0x200006
  8375                           ;	unspecified, using default values
  8376   200006                     	org	2097158
  8377   200006  0FFF               	dw	4095
  8378                           
  8379                           ;Config register IDLOC4 @ 0x200008
  8380                           ;	unspecified, using default values
  8381   200008                     	org	2097160
  8382   200008  0FFF               	dw	4095
  8383                           
  8384                           ;Config register IDLOC5 @ 0x20000A
  8385                           ;	unspecified, using default values
  8386   20000A                     	org	2097162
  8387   20000A  0FFF               	dw	4095
  8388                           
  8389                           ;Config register IDLOC6 @ 0x20000C
  8390                           ;	unspecified, using default values
  8391   20000C                     	org	2097164
  8392   20000C  0FFF               	dw	4095
  8393                           
  8394                           ;Config register IDLOC7 @ 0x20000E
  8395                           ;	unspecified, using default values
  8396   20000E                     	org	2097166
  8397   20000E  0FFF               	dw	4095
  8398                           
  8399                           	psect	config
  8400                           
  8401                           ;Config register CONFIG1L @ 0x300000
  8402                           ;	External Oscillator mode Selection bits
  8403                           ;	FEXTOSC = HS, HS (crystal oscillator) above 8 MHz; PFM set to high power
  8404                           ;	Power-up default value for COSC bits
  8405                           ;	RSTOSC = EXTOSC_4PLL, EXTOSC with 4x PLL, with EXTOSC operating per FEXTOSC bits
  8406   300000                     	org	3145728
  8407   300000  AA                 	db	170
  8408                           
  8409                           ;Config register CONFIG1H @ 0x300001
  8410                           ;	unspecified, using default values
  8411                           ;	Clock Out Enable bit
  8412                           ;	CLKOUTEN = 0x1, unprogrammed default
  8413                           ;	Clock Switch Enable bit
  8414                           ;	CSWEN = 0x1, unprogrammed default
  8415                           ;	Fail-Safe Clock Monitor Enable bit
  8416                           ;	FCMEN = 0x1, unprogrammed default
  8417   300001                     	org	3145729
  8418   300001  FF                 	db	255
  8419                           
  8420                           ;Config register CONFIG2L @ 0x300002
  8421                           ;	unspecified, using default values
  8422                           ;	Master Clear Enable bit
  8423                           ;	MCLRE = 0x1, unprogrammed default
  8424                           ;	Power-up Timer Enable bit
  8425                           ;	PWRTE = 0x1, unprogrammed default
  8426                           ;	Low-power BOR enable bit
  8427                           ;	LPBOREN = 0x1, unprogrammed default
  8428                           ;	Brown-out Reset Enable bits
  8429                           ;	BOREN = 0x3, unprogrammed default
  8430   300002                     	org	3145730
  8431   300002  FF                 	db	255
  8432                           
  8433                           ;Config register CONFIG2H @ 0x300003
  8434                           ;	unspecified, using default values
  8435                           ;	Brown Out Reset Voltage selection bits
  8436                           ;	BORV = 0x3, unprogrammed default
  8437                           ;	ZCD Disable bit
  8438                           ;	ZCD = 0x1, unprogrammed default
  8439                           ;	PPSLOCK bit One-Way Set Enable bit
  8440                           ;	PPS1WAY = 0x1, unprogrammed default
  8441                           ;	Stack Full/Underflow Reset Enable bit
  8442                           ;	STVREN = 0x1, unprogrammed default
  8443                           ;	Debugger Enable bit
  8444                           ;	DEBUG = 0x1, unprogrammed default
  8445                           ;	Extended Instruction Set Enable bit
  8446                           ;	XINST = 0x1, unprogrammed default
  8447   300003                     	org	3145731
  8448   300003  FF                 	db	255
  8449                           
  8450                           ;Config register CONFIG3L @ 0x300004
  8451                           ;	WDT Period Select bits
  8452                           ;	WDTCPS = WDTCPS_31, Divider ratio 1:65536; software control of WDTPS
  8453                           ;	WDT operating mode
  8454                           ;	WDTE = OFF, WDT Disabled
  8455   300004                     	org	3145732
  8456   300004  9F                 	db	159
  8457                           
  8458                           ;Config register CONFIG3H @ 0x300005
  8459                           ;	unspecified, using default values
  8460                           ;	WDT Window Select bits
  8461                           ;	WDTCWS = 0x7, unprogrammed default
  8462                           ;	WDT input clock selector
  8463                           ;	WDTCCS = 0x7, unprogrammed default
  8464   300005                     	org	3145733
  8465   300005  FF                 	db	255
  8466                           
  8467                           ;Config register CONFIG4L @ 0x300006
  8468                           ;	unspecified, using default values
  8469                           ;	Write Protection Block 0
  8470                           ;	WRT0 = 0x1, unprogrammed default
  8471                           ;	Write Protection Block 1
  8472                           ;	WRT1 = 0x1, unprogrammed default
  8473                           ;	Write Protection Block 2
  8474                           ;	WRT2 = 0x1, unprogrammed default
  8475                           ;	Write Protection Block 3
  8476                           ;	WRT3 = 0x1, unprogrammed default
  8477                           ;	Write Protection Block 3
  8478                           ;	WRT4 = 0x1, unprogrammed default
  8479                           ;	Write Protection Block 3
  8480                           ;	WRT5 = 0x1, unprogrammed default
  8481                           ;	Write Protection Block 3
  8482                           ;	WRT6 = 0x1, unprogrammed default
  8483                           ;	Write Protection Block 3
  8484                           ;	WRT7 = 0x1, unprogrammed default
  8485   300006                     	org	3145734
  8486   300006  FF                 	db	255
  8487                           
  8488                           ;Config register CONFIG4H @ 0x300007
  8489                           ;	unspecified, using default values
  8490                           ;	Configuration Register Write Protection bit
  8491                           ;	WRTC = 0x1, unprogrammed default
  8492                           ;	Boot Block Write Protection bit
  8493                           ;	WRTB = 0x1, unprogrammed default
  8494                           ;	Data EEPROM Write Protection bit
  8495                           ;	WRTD = 0x1, unprogrammed default
  8496                           ;	Scanner Enable bit
  8497                           ;	SCANE = 0x1, unprogrammed default
  8498                           ;	Low Voltage Programming Enable bit
  8499                           ;	LVP = 0x1, unprogrammed default
  8500   300007                     	org	3145735
  8501   300007  FF                 	db	255
  8502                           
  8503                           ;Config register CONFIG5L @ 0x300008
  8504                           ;	unspecified, using default values
  8505                           ;	UserNVM Program Memory Code Protection bit
  8506                           ;	CP = 0x1, unprogrammed default
  8507                           ;	DataNVM Memory Code Protection bit
  8508                           ;	CPD = 0x1, unprogrammed default
  8509   300008                     	org	3145736
  8510   300008  FF                 	db	255
  8511                           
  8512                           ;Config register CONFIG5H @ 0x300009
  8513                           ;	unspecified, using default values
  8514   300009                     	org	3145737
  8515   300009  FF                 	db	255
  8516                           
  8517                           ;Config register CONFIG6L @ 0x30000A
  8518                           ;	unspecified, using default values
  8519                           ;	Table Read Protection Block 0
  8520                           ;	EBTR0 = 0x1, unprogrammed default
  8521                           ;	Table Read Protection Block 1
  8522                           ;	EBTR1 = 0x1, unprogrammed default
  8523                           ;	Table Read Protection Block 2
  8524                           ;	EBTR2 = 0x1, unprogrammed default
  8525                           ;	Table Read Protection Block 3
  8526                           ;	EBTR3 = 0x1, unprogrammed default
  8527                           ;	Table Read Protection Block 4
  8528                           ;	EBTR4 = 0x1, unprogrammed default
  8529                           ;	Table Read Protection Block 5
  8530                           ;	EBTR5 = 0x1, unprogrammed default
  8531                           ;	Table Read Protection Block 6
  8532                           ;	EBTR6 = 0x1, unprogrammed default
  8533                           ;	Table Read Protection Block 7
  8534                           ;	EBTR7 = 0x1, unprogrammed default
  8535   30000A                     	org	3145738
  8536   30000A  FF                 	db	255
  8537                           
  8538                           ;Config register CONFIG6H @ 0x30000B
  8539                           ;	unspecified, using default values
  8540                           ;	Boot Block Table Read Protection bit
  8541                           ;	EBTRB = 0x1, unprogrammed default
  8542   30000B                     	org	3145739
  8543   30000B  FF                 	db	255
  8544                           tosu	equ	0xFFF
  8545                           tosh	equ	0xFFE
  8546                           tosl	equ	0xFFD
  8547                           stkptr	equ	0xFFC
  8548                           pclatu	equ	0xFFB
  8549                           pclath	equ	0xFFA
  8550                           pcl	equ	0xFF9
  8551                           tblptru	equ	0xFF8
  8552                           tblptrh	equ	0xFF7
  8553                           tblptrl	equ	0xFF6
  8554                           tablat	equ	0xFF5
  8555                           prodh	equ	0xFF4
  8556                           prodl	equ	0xFF3
  8557                           indf0	equ	0xFEF
  8558                           postinc0	equ	0xFEE
  8559                           postdec0	equ	0xFED
  8560                           preinc0	equ	0xFEC
  8561                           plusw0	equ	0xFEB
  8562                           fsr0h	equ	0xFEA
  8563                           fsr0l	equ	0xFE9
  8564                           wreg	equ	0xFE8
  8565                           indf1	equ	0xFE7
  8566                           postinc1	equ	0xFE6
  8567                           postdec1	equ	0xFE5
  8568                           preinc1	equ	0xFE4
  8569                           plusw1	equ	0xFE3
  8570                           fsr1h	equ	0xFE2
  8571                           fsr1l	equ	0xFE1
  8572                           bsr	equ	0xFE0
  8573                           indf2	equ	0xFDF
  8574                           postinc2	equ	0xFDE
  8575                           postdec2	equ	0xFDD
  8576                           preinc2	equ	0xFDC
  8577                           plusw2	equ	0xFDB
  8578                           fsr2h	equ	0xFDA
  8579                           fsr2l	equ	0xFD9
  8580                           status	equ	0xFD8

Data Sizes:
    Strings     39
    Constant    0
    Data        2
    BSS         125
    Persistent  0
    Stack       0

Auto Spaces:
    Space          Size  Autos    Used
    COMRAM           94     72      83
    BANK0           160     62     118
    BANK1           256     50     110
    BANK2           256      0       0
    BANK3           256      0       0
    BANK4           256      0       0
    BANK5           256      0       0
    BANK6           256      0       0
    BANK7           256      0       0
    BANK8           256      0       0
    BANK9           256      0       0
    BANK10          256      0       0
    BANK11          256      0       0
    BANK12          256      0       0
    BANK13          234      0       0

Pointer List with Targets:

    fputs@s	PTR const unsigned char  size(2) Largest target is 32
		 -> dbuf(BANK0[32]), 

    fputs@fp	PTR struct _IO_FILE size(2) Largest target is 11
		 -> sprintf@f(BANK0[11]), 

    fputc@fp...source	PTR const unsigned char  size(2) Largest target is 0

    fputc@fp...buffer	PTR unsigned char  size(2) Largest target is 0

    fputc@fp	PTR struct _IO_FILE size(2) Largest target is 11
		 -> sprintf@f(BANK0[11]), 

    atoi@s	PTR const unsigned char  size(2) Largest target is 39
		 -> STR_1(CODE[39]), 

    vfprintf@ap	PTR PTR void  size(2) Largest target is 2
		 -> sprintf@ap(BANK0[2]), 

    vfprintf@fp	PTR struct _IO_FILE size(2) Largest target is 11
		 -> sprintf@f(BANK0[11]), 

    vfprintf@fmt	PTR const unsigned char  size(2) Largest target is 39
		 -> STR_1(CODE[39]), 

    vfprintf@cfmt	PTR unsigned char  size(2) Largest target is 39
		 -> STR_1(CODE[39]), 

    vfpfcnvrt@fp	PTR struct _IO_FILE size(2) Largest target is 11
		 -> sprintf@f(BANK0[11]), 

    vfpfcnvrt@cp	PTR unsigned char  size(2) Largest target is 39
		 -> STR_1(CODE[39]), 

    vfpfcnvrt@ap	PTR PTR void  size(2) Largest target is 2
		 -> sprintf@ap(BANK0[2]), 

    vfpfcnvrt@fmt	PTR PTR unsigned char  size(2) Largest target is 2
		 -> vfprintf@cfmt(COMRAM[2]), 

    S2358$vp	PTR void  size(2) Largest target is 0

    convarg.vp	PTR void  size(2) Largest target is 0

    dtoa@fp	PTR struct _IO_FILE size(2) Largest target is 11
		 -> sprintf@f(BANK0[11]), 

    pad@fp	PTR struct _IO_FILE size(2) Largest target is 11
		 -> sprintf@f(BANK0[11]), 

    pad@buf	PTR unsigned char  size(2) Largest target is 32
		 -> dbuf(BANK0[32]), 

    sprintf@fmt	PTR const unsigned char  size(2) Largest target is 39
		 -> STR_1(CODE[39]), 

    sprintf@s	PTR unsigned char  size(2) Largest target is 40
		 -> main@string2(BANK1[40]), 

    sprintf@ap	PTR void [1] size(2) Largest target is 2
		 -> ?_sprintf(BANK0[2]), 

    S2305$source	PTR const unsigned char  size(2) Largest target is 0

    f...source	PTR const unsigned char  size(2) Largest target is 0

    S2305$buffer	PTR unsigned char  size(2) Largest target is 0

    f...buffer	PTR unsigned char  size(2) Largest target is 0

    TxBufferedString@string	PTR unsigned char  size(2) Largest target is 40
		 -> main@string2(BANK1[40]), 

    fullSpeedAhead@mR.negDutyHighByte	PTR unsigned char  size(2) Largest target is 0

    fullSpeedAhead@mR.posDutyHighByte	PTR unsigned char  size(2) Largest target is 0

    fullSpeedAhead@mL.negDutyHighByte	PTR unsigned char  size(2) Largest target is 0

    fullSpeedAhead@mL.posDutyHighByte	PTR unsigned char  size(2) Largest target is 0

    turnRight@mR.negDutyHighByte	PTR unsigned char  size(2) Largest target is 0

    turnRight@mR.posDutyHighByte	PTR unsigned char  size(2) Largest target is 0

    turnRight@mL.negDutyHighByte	PTR unsigned char  size(2) Largest target is 0

    turnRight@mL.posDutyHighByte	PTR unsigned char  size(2) Largest target is 0

    turnLeft@mR.negDutyHighByte	PTR unsigned char  size(2) Largest target is 0

    turnLeft@mR.posDutyHighByte	PTR unsigned char  size(2) Largest target is 0

    turnLeft@mL.negDutyHighByte	PTR unsigned char  size(2) Largest target is 0

    turnLeft@mL.posDutyHighByte	PTR unsigned char  size(2) Largest target is 0

    stop@mR.negDutyHighByte	PTR unsigned char  size(2) Largest target is 0

    stop@mR.posDutyHighByte	PTR unsigned char  size(2) Largest target is 0

    stop@mL.negDutyHighByte	PTR unsigned char  size(2) Largest target is 0

    stop@mL.posDutyHighByte	PTR unsigned char  size(2) Largest target is 0

    S1153DC_motor$negDutyHighByte	PTR unsigned char  size(2) Largest target is 0

    setMotorPWM@m.negDutyHighByte	PTR unsigned char  size(2) Largest target is 0

    S1153DC_motor$posDutyHighByte	PTR unsigned char  size(2) Largest target is 0

    setMotorPWM@m.posDutyHighByte	PTR unsigned char  size(2) Largest target is 0

    Update_RGBC@tempval	PTR struct RGB_val size(2) Largest target is 8
		 -> main@initial_color(BANK1[8]), 


Critical Paths under _main in COMRAM

    _sprintf->_vfprintf
    _vfprintf->_vfpfcnvrt
    _vfpfcnvrt->_dtoa
    _dtoa->_pad
    _pad->_fputs
    _fputs->_fputc
    _abs->___aomod
    _atoi->___wmul
    _detect_color->___fltol
    ___fltol->___flmul
    ___flmul->___fldiv
    ___fldiv->___xxtofl
    _color_click_init->_color_writetoaddr
    _Update_RGBC->_color_read_Blue
    _Update_RGBC->_color_read_Clear
    _Update_RGBC->_color_read_Green
    _Update_RGBC->_color_read_Red
    _color_read_Red->_I2C_2_Master_Read
    _color_read_Green->_I2C_2_Master_Read
    _color_read_Clear->_I2C_2_Master_Read
    _color_read_Blue->_I2C_2_Master_Read
    _I2C_2_Master_RepStart->_I2C_2_Master_Idle
    _I2C_2_Master_Read->_I2C_2_Master_Idle
    _TxBufferedString->_putCharToTxBuf
    _interrupts_clear_colorclick->_init_colorclick_interrupts
    _init_colorclick_interrupts->_color_writetoaddr
    _color_writetoaddr->_I2C_2_Master_Write
    _I2C_2_Master_Write->_I2C_2_Master_Idle
    _I2C_2_Master_Stop->_I2C_2_Master_Idle
    _I2C_2_Master_Start->_I2C_2_Master_Idle

Critical Paths under _LowISR in COMRAM

    None.

Critical Paths under _HighISR in COMRAM

    i2_interrupts_clear_colorclick->i2_init_colorclick_interrupts
    i2_init_colorclick_interrupts->i2_color_writetoaddr
    i2_color_writetoaddr->i2_I2C_2_Master_Write
    i2_I2C_2_Master_Write->i2_I2C_2_Master_Idle
    i2_I2C_2_Master_Stop->i2_I2C_2_Master_Idle
    i2_I2C_2_Master_Start->i2_I2C_2_Master_Idle

Critical Paths under _main in BANK0

    _main->_sprintf
    _sprintf->_vfprintf
    _vfprintf->_vfpfcnvrt
    _vfpfcnvrt->_dtoa
    _detect_color->___flmul
    ___fltol->___flmul

Critical Paths under _LowISR in BANK0

    None.

Critical Paths under _HighISR in BANK0

    None.

Critical Paths under _main in BANK1

    None.

Critical Paths under _LowISR in BANK1

    None.

Critical Paths under _HighISR in BANK1

    None.

Critical Paths under _main in BANK2

    None.

Critical Paths under _LowISR in BANK2

    None.

Critical Paths under _HighISR in BANK2

    None.

Critical Paths under _main in BANK3

    None.

Critical Paths under _LowISR in BANK3

    None.

Critical Paths under _HighISR in BANK3

    None.

Critical Paths under _main in BANK4

    None.

Critical Paths under _LowISR in BANK4

    None.

Critical Paths under _HighISR in BANK4

    None.

Critical Paths under _main in BANK5

    None.

Critical Paths under _LowISR in BANK5

    None.

Critical Paths under _HighISR in BANK5

    None.

Critical Paths under _main in BANK6

    None.

Critical Paths under _LowISR in BANK6

    None.

Critical Paths under _HighISR in BANK6

    None.

Critical Paths under _main in BANK7

    None.

Critical Paths under _LowISR in BANK7

    None.

Critical Paths under _HighISR in BANK7

    None.

Critical Paths under _main in BANK8

    None.

Critical Paths under _LowISR in BANK8

    None.

Critical Paths under _HighISR in BANK8

    None.

Critical Paths under _main in BANK9

    None.

Critical Paths under _LowISR in BANK9

    None.

Critical Paths under _HighISR in BANK9

    None.

Critical Paths under _main in BANK10

    None.

Critical Paths under _LowISR in BANK10

    None.

Critical Paths under _HighISR in BANK10

    None.

Critical Paths under _main in BANK11

    None.

Critical Paths under _LowISR in BANK11

    None.

Critical Paths under _HighISR in BANK11

    None.

Critical Paths under _main in BANK12

    None.

Critical Paths under _LowISR in BANK12

    None.

Critical Paths under _HighISR in BANK12

    None.

Critical Paths under _main in BANK13

    None.

Critical Paths under _LowISR in BANK13

    None.

Critical Paths under _HighISR in BANK13

    None.

Call Graph Tables:

 ---------------------------------------------------------------------------------
 (Depth) Function   	        Calls       Base Space   Used Autos Params    Refs
 ---------------------------------------------------------------------------------
 (0) _main                                                53    53      0   22238
                                             60 BANK0      2     2      0
                                              0 BANK1     50    50      0
                    _Interrupts_init
                           _LED_init
                        _Timer0_init
                   _TxBufferedString
                        _Update_RGBC
                         _WhiteLight
                   _color_click_init
                       _detect_color
                   _getCharFromRxBuf
                         _initUSART4
                      _isDataInRxBuf
                          _sendTxBuf
                            _sprintf
 ---------------------------------------------------------------------------------
 (1) _sprintf                                             27    15     12    9989
                                             35 BANK0     25    13     12
                           _vfprintf
 ---------------------------------------------------------------------------------
 (2) _vfprintf                                             8     2      6    9497
                                             65 COMRAM     2     2      0
                                             29 BANK0      6     0      6
                          _vfpfcnvrt
 ---------------------------------------------------------------------------------
 (3) _vfpfcnvrt                                           24    18      6    9003
                                             56 COMRAM     9     3      6
                                             17 BANK0     12    12      0
                               _atoi
                               _dtoa
                              _fputc
                            _isdigit
 ---------------------------------------------------------------------------------
 (4) _dtoa                                                35    25     10    5075
                                             38 COMRAM    18     8     10
                                              0 BANK0     17    17      0
                            ___aodiv
                            ___aomod
                                _abs
                                _pad
 ---------------------------------------------------------------------------------
 (5) _pad                                                 11     5      6    2775
                                             27 COMRAM    11     5      6
                              _fputc
                              _fputs
 ---------------------------------------------------------------------------------
 (6) _fputs                                                7     3      4    1357
                                             20 COMRAM     7     3      4
                              _fputc
 ---------------------------------------------------------------------------------
 (4) _fputc                                                9     5      4     857
                                             11 COMRAM     9     5      4
                              _putch
 ---------------------------------------------------------------------------------
 (5) _putch                                                1     1      0       0
 ---------------------------------------------------------------------------------
 (5) _abs                                                  4     2      2     183
                                             29 COMRAM     4     2      2
                            ___aomod (ARG)
 ---------------------------------------------------------------------------------
 (5) ___aomod                                             18     2     16     613
                                             11 COMRAM    18     2     16
 ---------------------------------------------------------------------------------
 (5) ___aodiv                                             26    10     16     625
                                             11 COMRAM    26    10     16
 ---------------------------------------------------------------------------------
 (4) _atoi                                                 9     7      2    1764
                                             17 COMRAM     9     7      2
                             ___wmul
                            _isdigit
                            _isspace
 ---------------------------------------------------------------------------------
 (5) _isspace                                              5     3      2     259
                                             11 COMRAM     5     3      2
 ---------------------------------------------------------------------------------
 (4) _isdigit                                              4     2      2     281
                                             11 COMRAM     4     2      2
 ---------------------------------------------------------------------------------
 (5) ___wmul                                               6     2      4     772
                                             11 COMRAM     6     2      4
 ---------------------------------------------------------------------------------
 (1) _sendTxBuf                                            0     0      0       0
                      _isDataInTxBuf
 ---------------------------------------------------------------------------------
 (2) _isDataInTxBuf                                        0     0      0       0
 ---------------------------------------------------------------------------------
 (1) _isDataInRxBuf                                        0     0      0       0
 ---------------------------------------------------------------------------------
 (1) _initUSART4                                           0     0      0       0
 ---------------------------------------------------------------------------------
 (1) _getCharFromRxBuf                                     2     2      0       0
                                             11 COMRAM     2     2      0
 ---------------------------------------------------------------------------------
 (1) _detect_color                                        14     6      8    8900
                                             13 BANK0     14     6      8
                            ___fldiv
                            ___flmul
                            ___fltol
                           ___xxtofl
 ---------------------------------------------------------------------------------
 (2) ___xxtofl                                            14    10      4    1016
                                             11 COMRAM    14    10      4
 ---------------------------------------------------------------------------------
 (2) ___fltol                                             10     6      4     607
                                             62 COMRAM    10     6      4
                            ___fldiv (ARG)
                            ___flmul (ARG)
                           ___xxtofl (ARG)
 ---------------------------------------------------------------------------------
 (2) ___flmul                                             25    17      8    2873
                                             50 COMRAM    12     4      8
                                              0 BANK0     13    13      0
                            ___fldiv (ARG)
                           ___xxtofl (ARG)
 ---------------------------------------------------------------------------------
 (2) ___fldiv                                             25    17      8    2363
                                             25 COMRAM    25    17      8
                           ___xxtofl (ARG)
 ---------------------------------------------------------------------------------
 (1) _color_click_init                                     1     1      0     903
                                             15 COMRAM     1     1      0
                  _I2C_2_Master_Init
                  _color_writetoaddr
 ---------------------------------------------------------------------------------
 (2) _I2C_2_Master_Init                                    0     0      0       0
 ---------------------------------------------------------------------------------
 (1) _WhiteLight                                           0     0      0       0
 ---------------------------------------------------------------------------------
 (1) _Update_RGBC                                          2     0      2     870
                                             22 COMRAM     2     0      2
                    _color_read_Blue
                   _color_read_Clear
                   _color_read_Green
                     _color_read_Red
 ---------------------------------------------------------------------------------
 (2) _color_read_Red                                       7     5      2     164
                                             15 COMRAM     7     5      2
                  _I2C_2_Master_Read
              _I2C_2_Master_RepStart
                 _I2C_2_Master_Start
                  _I2C_2_Master_Stop
                 _I2C_2_Master_Write
 ---------------------------------------------------------------------------------
 (2) _color_read_Green                                     7     5      2     164
                                             15 COMRAM     7     5      2
                  _I2C_2_Master_Read
              _I2C_2_Master_RepStart
                 _I2C_2_Master_Start
                  _I2C_2_Master_Stop
                 _I2C_2_Master_Write
 ---------------------------------------------------------------------------------
 (2) _color_read_Clear                                     7     5      2     164
                                             15 COMRAM     7     5      2
                  _I2C_2_Master_Read
              _I2C_2_Master_RepStart
                 _I2C_2_Master_Start
                  _I2C_2_Master_Stop
                 _I2C_2_Master_Write
 ---------------------------------------------------------------------------------
 (2) _color_read_Blue                                      7     5      2     164
                                             15 COMRAM     7     5      2
                  _I2C_2_Master_Read
              _I2C_2_Master_RepStart
                 _I2C_2_Master_Start
                  _I2C_2_Master_Stop
                 _I2C_2_Master_Write
 ---------------------------------------------------------------------------------
 (3) _I2C_2_Master_RepStart                                0     0      0       0
                  _I2C_2_Master_Idle
 ---------------------------------------------------------------------------------
 (3) _I2C_2_Master_Read                                    3     3      0      65
                                             12 COMRAM     3     3      0
                  _I2C_2_Master_Idle
 ---------------------------------------------------------------------------------
 (1) _TxBufferedString                                     2     0      2     186
                                             12 COMRAM     2     0      2
                     _putCharToTxBuf
 ---------------------------------------------------------------------------------
 (2) _putCharToTxBuf                                       1     1      0      31
                                             11 COMRAM     1     1      0
 ---------------------------------------------------------------------------------
 (1) _Timer0_init                                          0     0      0       0
 ---------------------------------------------------------------------------------
 (1) _LED_init                                             0     0      0       0
 ---------------------------------------------------------------------------------
 (1) _Interrupts_init                                      0     0      0     934
        _interrupts_clear_colorclick
 ---------------------------------------------------------------------------------
 (2) _interrupts_clear_colorclick                          0     0      0     934
                 _I2C_2_Master_Start
                  _I2C_2_Master_Stop
                 _I2C_2_Master_Write
         _init_colorclick_interrupts
 ---------------------------------------------------------------------------------
 (3) _init_colorclick_interrupts                           1     1      0     903
                                             15 COMRAM     1     1      0
                  _color_writetoaddr
 ---------------------------------------------------------------------------------
 (2) _color_writetoaddr                                    2     1      1     903
                                             13 COMRAM     2     1      1
                 _I2C_2_Master_Start
                  _I2C_2_Master_Stop
                 _I2C_2_Master_Write
 ---------------------------------------------------------------------------------
 (3) _I2C_2_Master_Write                                   1     1      0      31
                                             12 COMRAM     1     1      0
                  _I2C_2_Master_Idle
 ---------------------------------------------------------------------------------
 (3) _I2C_2_Master_Stop                                    0     0      0       0
                  _I2C_2_Master_Idle
 ---------------------------------------------------------------------------------
 (3) _I2C_2_Master_Start                                   0     0      0       0
                  _I2C_2_Master_Idle
 ---------------------------------------------------------------------------------
 (4) _I2C_2_Master_Idle                                    1     1      0       0
                                             11 COMRAM     1     1      0
 ---------------------------------------------------------------------------------
 Estimated maximum stack depth 6
 ---------------------------------------------------------------------------------
 (Depth) Function   	        Calls       Base Space   Used Autos Params    Refs
 ---------------------------------------------------------------------------------
 (9) _LowISR                                               3     3      0       0
                                              8 COMRAM     3     3      0
 ---------------------------------------------------------------------------------
 Estimated maximum stack depth 9
 ---------------------------------------------------------------------------------
 (Depth) Function   	        Calls       Base Space   Used Autos Params    Refs
 ---------------------------------------------------------------------------------
 (10) _HighISR                                             3     3      0     289
                                              5 COMRAM     3     3      0
                   _getCharFromTxBuf
                     _putCharToRxBuf
      i2_interrupts_clear_colorclick
                    i2_isDataInTxBuf
 ---------------------------------------------------------------------------------
 (11) i2_isDataInTxBuf                                     0     0      0       0
 ---------------------------------------------------------------------------------
 (11) i2_interrupts_clear_colorclick                       0     0      0     244
               i2_I2C_2_Master_Start
                i2_I2C_2_Master_Stop
               i2_I2C_2_Master_Write
       i2_init_colorclick_interrupts
 ---------------------------------------------------------------------------------
 (12) i2_init_colorclick_interrupts                        1     1      0     222
                                              4 COMRAM     1     1      0
                i2_color_writetoaddr
 ---------------------------------------------------------------------------------
 (13) i2_color_writetoaddr                                 2     1      1     222
                                              2 COMRAM     2     1      1
               i2_I2C_2_Master_Start
                i2_I2C_2_Master_Stop
               i2_I2C_2_Master_Write
 ---------------------------------------------------------------------------------
 (14) i2_I2C_2_Master_Write                                1     1      0      22
                                              1 COMRAM     1     1      0
                i2_I2C_2_Master_Idle
 ---------------------------------------------------------------------------------
 (14) i2_I2C_2_Master_Stop                                 0     0      0       0
                i2_I2C_2_Master_Idle
 ---------------------------------------------------------------------------------
 (14) i2_I2C_2_Master_Start                                0     0      0       0
                i2_I2C_2_Master_Idle
 ---------------------------------------------------------------------------------
 (15) i2_I2C_2_Master_Idle                                 1     1      0       0
                                              0 COMRAM     1     1      0
 ---------------------------------------------------------------------------------
 (11) _putCharToRxBuf                                      1     1      0      22
                                              0 COMRAM     1     1      0
 ---------------------------------------------------------------------------------
 (11) _getCharFromTxBuf                                    2     2      0       0
                                              0 COMRAM     2     2      0
 ---------------------------------------------------------------------------------
 Estimated maximum stack depth 15
 ---------------------------------------------------------------------------------

 Call Graph Graphs:

 _main (ROOT)
   _Interrupts_init
     _interrupts_clear_colorclick
       _I2C_2_Master_Start
         _I2C_2_Master_Idle
       _I2C_2_Master_Stop
         _I2C_2_Master_Idle
       _I2C_2_Master_Write
         _I2C_2_Master_Idle
       _init_colorclick_interrupts
         _color_writetoaddr
           _I2C_2_Master_Start
           _I2C_2_Master_Stop
           _I2C_2_Master_Write
   _LED_init
   _Timer0_init
   _TxBufferedString
     _putCharToTxBuf
   _Update_RGBC
     _color_read_Blue
       _I2C_2_Master_Read
         _I2C_2_Master_Idle
       _I2C_2_Master_RepStart
         _I2C_2_Master_Idle
       _I2C_2_Master_Start
       _I2C_2_Master_Stop
       _I2C_2_Master_Write
     _color_read_Clear
       _I2C_2_Master_Read
       _I2C_2_Master_RepStart
       _I2C_2_Master_Start
       _I2C_2_Master_Stop
       _I2C_2_Master_Write
     _color_read_Green
       _I2C_2_Master_Read
       _I2C_2_Master_RepStart
       _I2C_2_Master_Start
       _I2C_2_Master_Stop
       _I2C_2_Master_Write
     _color_read_Red
       _I2C_2_Master_Read
       _I2C_2_Master_RepStart
       _I2C_2_Master_Start
       _I2C_2_Master_Stop
       _I2C_2_Master_Write
   _WhiteLight
   _color_click_init
     _I2C_2_Master_Init
     _color_writetoaddr
   _detect_color
     ___fldiv
       ___xxtofl (ARG)
     ___flmul
       ___fldiv (ARG)
       ___xxtofl (ARG)
     ___fltol
       ___fldiv (ARG)
       ___flmul (ARG)
       ___xxtofl (ARG)
     ___xxtofl
   _getCharFromRxBuf
   _initUSART4
   _isDataInRxBuf
   _sendTxBuf
     _isDataInTxBuf
   _sprintf
     _vfprintf
       _vfpfcnvrt
         _atoi
           ___wmul
           _isdigit
           _isspace
         _dtoa
           ___aodiv
           ___aomod
           _abs
             ___aomod (ARG)
           _pad
             _fputc
               _putch
             _fputs
               _fputc
         _fputc
         _isdigit

 _LowISR (ROOT)

 _HighISR (ROOT)
   _getCharFromTxBuf
   _putCharToRxBuf
   i2_interrupts_clear_colorclick
     i2_I2C_2_Master_Start
       i2_I2C_2_Master_Idle
     i2_I2C_2_Master_Stop
       i2_I2C_2_Master_Idle
     i2_I2C_2_Master_Write
       i2_I2C_2_Master_Idle
     i2_init_colorclick_interrupts
       i2_color_writetoaddr
         i2_I2C_2_Master_Start
         i2_I2C_2_Master_Stop
         i2_I2C_2_Master_Write
   i2_isDataInTxBuf

 Address spaces:
Name               Size   Autos  Total    Cost      Usage
BIGRAM             DE9      0       0      64        0.0%
EEDATA             400      0       0       0        0.0%
BITBANK12          100      0       0      28        0.0%
BANK12             100      0       0      29        0.0%
BITBANK11          100      0       0      26        0.0%
BANK11             100      0       0      27        0.0%
BITBANK10          100      0       0      24        0.0%
BANK10             100      0       0      25        0.0%
BITBANK9           100      0       0      22        0.0%
BANK9              100      0       0      23        0.0%
BITBANK8           100      0       0      20        0.0%
BANK8              100      0       0      21        0.0%
BITBANK7           100      0       0      18        0.0%
BANK7              100      0       0      19        0.0%
BITBANK6           100      0       0      16        0.0%
BANK6              100      0       0      17        0.0%
BITBANK5           100      0       0      14        0.0%
BANK5              100      0       0      15        0.0%
BITBANK4           100      0       0      12        0.0%
BANK4              100      0       0      13        0.0%
BITBANK3           100      0       0      10        0.0%
BANK3              100      0       0      11        0.0%
BITBANK2           100      0       0       8        0.0%
BANK2              100      0       0       9        0.0%
BITBANK1           100      0       0       6        0.0%
BANK1              100     32      6E       7       43.0%
BITBANK13           EA      0       0      30        0.0%
BANK13              EA      0       0      31        0.0%
BITBANK0            A0      0       0       4        0.0%
BANK0               A0     3E      76       5       73.8%
BITCOMRAM           5E      0       0       0        0.0%
COMRAM              5E     48      53       1       88.3%
BITBIGSFRhlllh      52      0       0      41        0.0%
BITBIGSFRhlllll     37      0       0      43        0.0%
BITBIGSFRllh        2D      0       0      46        0.0%
BITBIGSFRlllhll     2A      0       0      54        0.0%
BITBIGSFRlllllh     23      0       0      61        0.0%
BITBIGSFRhhhlll     1D      0       0      38        0.0%
BITBIGSFRhhhhhl     1B      0       0      33        0.0%
BITBIGSFRhhhhl      13      0       0      34        0.0%
BITBIGSFRlllhhh     11      0       0      48        0.0%
BITBIGSFRlllhhh     11      0       0      49        0.0%
BITBIGSFRhhhlhh      E      0       0      35        0.0%
BITBIGSFRhhhhhh      D      0       0      32        0.0%
BITBIGSFRlllhhh      C      0       0      47        0.0%
BITBIGSFRlllhll      9      0       0      58        0.0%
BITBIGSFRhlllll      8      0       0      44        0.0%
BITBIGSFRllllh       6      0       0      60        0.0%
BITBIGSFRlllhll      6      0       0      53        0.0%
BITBIGSFRlllhll      5      0       0      56        0.0%
BITBIGSFRlllhlh      5      0       0      52        0.0%
BITBIGSFRlllhll      3      0       0      55        0.0%
BITBIGSFRlllhll      3      0       0      57        0.0%
BITBIGSFRlllhhl      3      0       0      51        0.0%
BITBIGSFRhllllh      2      0       0      42        0.0%
BITBIGSFRhhhllh      2      0       0      37        0.0%
BITBIGSFRllllll      2      0       0      62        0.0%
BITBIGSFRhhhlhl      1      0       0      36        0.0%
BITBIGSFRlllhhh      1      0       0      50        0.0%
BITBIGSFRhllhh       1      0       0      39        0.0%
BITBIGSFRhllhl       1      0       0      40        0.0%
BITBIGSFRlllhll      1      0       0      59        0.0%
BITBIGSFRlh          1      0       0      45        0.0%
BIGSFR               0      0       0     200        0.0%
BITSFR_3             0      0       0     200        0.0%
SFR_3                0      0       0     200        0.0%
BITSFR_2             0      0       0     200        0.0%
SFR_2                0      0       0     200        0.0%
BITSFR_1             0      0       0     200        0.0%
SFR_1                0      0       0     200        0.0%
BITSFR               0      0       0     200        0.0%
SFR                  0      0       0     200        0.0%
STACK                0      0       0       2        0.0%
NULL                 0      0       0       0        0.0%
ABS                  0      0     137      63        0.0%
DATA                 0      0     137       3        0.0%
CODE                 0      0       0       0        0.0%


Microchip Technology PIC18 Macro Assembler V2.40 build 20220703182018 
Symbol Table                                                                                   Fri Mar 03 00:42:10 2023

                       _color_read_Red 2B9A                           ___fldiv@aexp 0032  
                         ___fldiv@bexp 0031                           ___fldiv@sign 002A  
                      _color_read_Blue 2C8A                                     l21 2EFA  
                                   l30 2C38                                     l24 3108  
                                   l33 2CD8                                     l27 2BE8  
                                   l36 2C88                                     l52 1368  
                                   l44 1368                                     l39 2AF2  
                                   l58 136E                                     l91 3054  
                                   l85 2FD8                                     l94 321E  
                                   l88 302E                                     l97 320A  
                                   bsr 000FE0                    ___wmul@multiplicand 000E  
                     _color_read_Clear 2C3A                       _color_read_Green 2BEA  
                    ??_Interrupts_init 0011                                    l100 3214  
                                  l103 31F4                                    l106 2E86  
                                  l300 3160                                    l125 31E8  
                                  l311 30E8                                    l128 323A  
                                  l250 3146                                    l272 2F82  
                                  l290 31AC                                    l380 2D26  
                                  l373 30C8                                    l383 317A  
                                  l287 3002                                    l279 31C4  
                                  l447 27E2                                    l296 2F2A  
                                  l457 30A2                                    l571 23E2  
                                  l584 2546                                    l754 27AA  
                                  _abs 2E88                                    _pad 2972  
                  i2_color_writetoaddr 310A                                    wreg 000FE8  
                         ___flmul@aexp 0061                           ___flmul@bexp 0066  
                         ___flmul@sign 0060                           ___flmul@temp 006B  
                         ___flmul@prod 0067                           ___fltol@exp1 0048  
                                 l1112 20FE                                   l1041 1994  
                                 l1050 19DA                                   l1115 225A  
                                 l1211 1DEE                                   ?_abs 001E  
                                 l1052 1A52                                   l1044 1958  
                                 l1053 1A40                                   l1221 2EBE  
                                 l1126 21F2                                   l1039 1B34  
                                 l1071 1436                                   l1119 2196  
                                 l1135 2B98                                   l1080 16A4  
                                 l1224 2EC6                                   l1081 1692  
                                 l1217 2B46                                   l1162 29B6  
                                 l1075 179A                                   l1252 2F56  
                                 l1260 2E00                                   l1165 29F8  
                                 l1173 1E8C                                   l1078 162C  
                                 l1246 269C                                   l1167 2A1A  
                                 l1175 1E94                                   l1088 175C  
                                 l4000 1FE4                                   l1176 1EDA  
                                 l1249 26A4                                   l4002 2000  
                                 l4010 2060                                   l1275 2970  
                                 l1283 2E44                                   l4020 2548  
                                 l4012 2070                                   l4004 201E  
                                 l1189 20A6                                   l4030 25B8  
                                 l4022 255C                                   l1286 323E  
                                 l4014 2076                                   l4006 2038  
                                 l4110 1C52                                   l4102 1BAA  
                                 l4200 3162                                   l4032 25C0  
                                 l4016 2086                                   l4008 2052  
                                 l4120 1C9C                                   l4112 1C60  
                                 l4104 1BE2                                   l4210 17C8  
                                 l4202 179C                                   l4042 263A  
                                 l4034 25C8                                   l4026 2560  
                                 l4130 1D80                                   l4122 1CD8  
                                 l4114 1C6E                                   l4106 1BF4  
                                 l4060 2E54                                   l4052 3202  
                                 l4300 19FC                                   l4220 1802  
                                 l4212 17D8                                   l4204 17A8  
                                 l4044 266E                                   l4036 2600  
                                 l4028 2580                                   l4124 1CE8  
                                 l4116 1C8E                                   l4108 1C1C  
                                 l4070 2CDA                                   l4062 2E5C  
                                 l4054 3206                                   l4310 1A6E  
                                 l4302 1A0A                                   l4230 182E  
                                 l4222 1808                                   l4214 17E8  
                                 l4206 17B6                                   l4046 2680  
                                 l4134 1DB0                                   l4126 1D08  
                                 l4080 2D12                                   l4072 2CE4  
                                 l4064 2E82                                   l4056 2E48  
                                 l4160 2FC4                                   l4152 2FB0  
                                 l4320 1ADA                                   l4312 1A7C  
                                 l4304 1A38                                   l4240 1868  
                                 l4232 183E                                   l4224 180E  
                                 l4216 17EA                                   l4208 17B8  
                                 l4400 14FC                                   l4128 1D28  
                                 l4082 2D1C                                   l4074 2CF4  
                                 l4066 2E84                                   l4058 2E4C  
                                 l4170 2BEA                                   l4162 2FC6  
                                 l4154 2FBA                                   l4330 1B28  
                                 l4322 1AF4                                   l4314 1AA6  
                                 l4242 187E                                   l4234 184E  
                                 l4226 181C                                   l4218 17F2  
                                 l4410 155E                                   l4402 1508  
                                 l4090 1B7A                                   l4138 1DC2  
                                 l4076 2CFE                                   l4172 2C30  
                                 l4164 2B9A                                   l4156 2FC0  
                                 l4332 1B2A                                   l4324 1B10  
                                 l4308 1A62                                   l4316 1AAA  
                                 l4260 18D2                                   l4244 188E  
                                 l4252 18AE                                   l4236 1850  
                                 l4228 181E                                   l4420 15F4  
                                 l4412 156A                                   l4404 1518  
                                 l4340 1370                                   l4092 1B7E  
                                 l4084 1B36                                   l4078 2D08  
                                 l4190 2FEC                                   l4182 2C3A  
                                 l4166 2BE0                                   l4158 2FC2  
                                 l4326 1B14                                   l4318 1AC4  
                                 l4270 1924                                   l4262 18EC  
                                 l4254 18BE                                   l4246 1896  
                                 l4238 1858                                   l4430 164A  
                                 l4422 1612                                   l4414 1586  
                                 l4406 1532                                   l4350 13AE  
                                 l4342 137E                                   l4510 279A  
                                 l4502 275E                                   l4094 1B8A  
                                 l4086 1B5E                                   l4192 2FF0  
                                 l4176 2C8A                                   l4184 2C80  
                                 l4328 1B22                                   l4280 1980  
                                 l4272 1934                                   l4264 18FC  
                                 l4256 18BE                                   l4248 189A  
                                 l4440 16B4                                   l4432 164E  
                                 l4424 161C                                   l4416 15B0  
                                 l4408 1542                                   l4360 13E0  
                                 l4352 13BE                                   l4344 138C  
                                 l4504 276A                                   l4520 210E  
                                 l4600 1058                                   l3800 28CC  
                                 l4096 1B8C                                   l4088 1B6C  
                                 l3810 302E                                   l4194 3000  
                                 l4178 2CD0                                   l4290 19C0  
                                 l4282 1982                                   l4274 1948  
                                 l4266 190C                                   l4450 1716  
                                 l4442 16C0                                   l4434 165C  
                                 l4426 162A                                   l4418 15E6  
                                 l4370 1420                                   l4362 13EE  
                                 l4354 13C4                                   l4346 138E  
                                 l4506 277A                                   l4530 214C  
                                 l4522 2124                                   l4514 20AA  
                                 l4610 10A0                                   l4602 1068  
                                 l3802 28D6                                   l4098 1B9E  
                                 l3812 303E                                   l4188 2FDC  
                                 l4292 19CA                                   l4284 1992  
                                 l4276 1956                                   l4268 191C  
                                 l4460 177E                                   l4452 172A  
                                 l4444 16CE                                   l4436 168A  
                                 l4428 163C                                   l4380 146A  
                                 l4372 1426                                   l4364 13F0  
                                 l4356 13D4                                   l4348 139E  
                                 l4508 278A                                   l4540 21D4  
                                 l4532 217E                                   l4516 20BA  
                                 l4700 1340                                   l4620 10F0  
                                 l4612 10B0                                   l4604 1078  
                                 l4196 3196                                   l3900 246E  
                                 l3804 28F4                                   l3820 2E24  
                                 l3822 3216                                   l3830 320C  
                                 l4710 3234                                   l4294 19D8  
                                 l4286 19A4                                   l4278 1962  
                                 l4462 1780                                   l4454 1744  
                                 l4446 16F8                                   l4390 14BA  
                                 l4382 1476                                   l4374 1446  
                                 l4366 1400                                   l4358 13DA  
                                 l4470 26A6                                   l4550 222A  
                                 l4542 21E2                                   l4534 2180  
                                 l4526 2138                                   l4518 20C8  
                                 l4702 1350                                   l4630 1138  
                                 l4614 10C0                                   l4622 10F8  
                                 l4606 1088                                   l3910 24F0  
                                 l3902 2482                                   l3806 292A  
                                 l3814 2E02                                   ?_pad 001C  
                                 l3824 321A                                   l3832 3210  
                                 l4288 19BA                                   l4296 19EA  
                                 l4456 1760                                   l4464 1786  
                                 l4448 16FC                                   l4392 14C6  
                                 l4384 1480                                   l4376 1456  
                                 l4368 1410                                   l4480 26FC  
                                 l4472 26BC                                   l4552 223A  
                                 l4544 2200                                   l4536 218C  
                                 l4528 2140                                   l4704 1360  
                                 l4640 1180                                   l4632 1148  
                                 l4624 1108                                   l4616 10D0  
                                 l4608 1090                                   l3840 225C  
                                 l3904 2490                                   l3912 24F6  
                                 l3816 2E0E                                   l3920 2972  
                                 l4560 2AF4                                   l4800 2B6A  
                                 l3826 31EC                                   l4570 2EC8  
                                 l4298 19F8                                   l4466 178A  
                                 l4458 1770                                   l4394 14D2  
                                 l4386 1496                                   l4482 270C  
                                 l4554 2248                                   l4546 2202  
                                 l4538 21C8                                   l4642 1190  
                                 l4650 11C8                                   l4634 1158  
                                 l4626 1118                                   l4618 10E0  
                                 l4730 3136                                   l3834 307E  
                                 l3850 22A0                                   l3842 2260  
                                 l3914 2506                                   l3906 24BE  
                                 l3818 2E20                                   l3930 29C2  
                                 l3922 2980                                   l4562 2B00  
                                 l4802 2B86                                   l3828 31F0  
                                 l4708 31DE                                   l4580 2A96  
                                 l4572 2ECC                                   l4396 14E0  
                                 l4388 14A2                                   l4492 2736  
                                 l4484 2710                                   l4476 26D0  
                                 l4556 224A                                   l4548 2206  
                                 l4660 1218                                   l4652 11D8  
                                 l4644 11A0                                   l4628 1128  
                                 l4636 1160                                   l4740 2F68  
                                 l4732 3140                                   l3836 309A  
                                 l3860 22F6                                   l3852 22C0  
                                 l3844 226E                                   l3916 2526  
                                 l3908 24DE                                   l3940 2EA2  
                                 l3932 29D6                                   l3924 2994  
                                 l4564 2B1C                                   l4750 2EFC  
                                 l4574 2ED6                                   l4398 14EC  
                                 l4494 2740                                   l4486 271E  
                                 l4478 26FA                                   l4670 1260  
                                 l4662 1228                                   l4654 11E8  
                                 l4646 11B0                                   l4638 1170  
                                 l4590 0FFE                                   l4582 0E2A  
                                 l4742 2F6C                                   l4734 3142  
                                 l4726 312A                                   l3942 2F2C  
                                 l3950 2DD4                                   l3870 2378  
                                 l3862 230A                                   l3854 22C4  
                                 l3846 228E                                   l3934 29DA  
                                 l3926 29A2                                   l4566 2B3C  
                                 l4752 2F00                                   l4576 2EE6  
                                 l4496 274A                                   l4680 12A8  
                                 l4672 1270                                   l4656 11F8  
                                 l4664 1230                                   l4648 11C0  
                                 l4592 100E                                   l4584 0E30  
                                 l4736 3144                                   l4728 3134  
                                 l4760 315C                                   l3952 2DF6  
                                 l3880 23C2                                   l3872 237A  
                                 l3864 2318                                   l3856 22D0  
                                 l3848 2292                                   l3936 2A06  
                                 l3928 29AE                                   l3960 1DF0  
                                 l4770 30A4                                   l4762 30CA  
                                 l4754 2F0E                                   l4578 2EF0  
                                 l4690 12F8                                   l4682 12B8  
                                 l4674 1280                                   l4666 1240  
                                 l4658 1208                                   l4594 1026  
                                 l4586 0ECA                                   l4738 2F58  
                                 l4746 31AE                                   l3954 2DFA  
                                 l3946 2DBC                                   l3874 238C  
                                 l3866 232A                                   l3858 22EE  
                                 l3890 2416                                   l3938 2E88  
                                 l3970 1E64                                   l3962 1E10  
                                 l4780 30B8                                   l4772 30AA  
                                 l4764 30D2                                   l4756 2F12  
                                 l4684 12C8                                   l4692 1300  
                                 l4676 1290                                   l4668 1250  
                                 l4596 1038                                   l4588 0F64  
                                 l3948 2DC0                                   l3868 2358  
                                 l3876 2392                                   l3892 241A  
                                 l3884 23E4                                   l3796 28A8  
                                 l3980 1EB2                                   l3972 1E66  
                                 l3964 1E26                                   l3958 30EC  
                                 l4790 30C4                                   l4782 30BA  
                                 l4774 30B0                                   l4766 30DC  
                                 l4694 1310                                   l4686 12D8  
                                 l4678 1298                                   l4598 1048  
                                 l4758 3148                                   l3878 23A2  
                                 l3894 2428                                   l3886 23E8  
                                 l3798 28BA                                   l3990 1EEA  
                                 l3982 1EC2                                   l3974 1E80  
                                 l3966 1E36                                   l4870 27D2  
                                 l4792 30C6                                   l4784 30BC  
                                 l4776 30B4                                   l4768 30E6  
                                 l4696 1320                                   l4688 12E8  
                                 l4960 25EA                                   l3896 2448  
                                 l3888 23F6                                   l3992 1EF0  
                                 l3984 1ECE                                   l3976 1E9C  
                                 l3968 1E56                                   l4880 280C  
                                 l4872 27D6                                   l4786 30BE  
                                 l4778 30B6                                   l4698 1330  
                                 l3898 2466                                   l3994 1F72  
                                 l3986 1ED6                                   l3978 1EAC  
                                 l4794 2B48                                   l4890 2876  
                                 l4882 2814                                   l4874 27E2  
                                 l4866 27AC                                   l4788 30C2  
                                 l3996 1F7A                                   l3988 1EE2  
                                 l4796 2B5A                                   l4892 2882  
                                 l4884 281C                                   l4876 27E6  
                                 l4868 27CE                                   l3998 1F80  
                                 l4958 1BD4                                   l4798 2B62  
                                 l4894 2886                                   l4886 2830  
                                 l4878 27F2                                   l4888 2842  
                                 l4896 2886                                   STR_1 0E01  
                                 u4000 22EE                           _BAUD4CONbits 000EE9  
                                 u4001 22EA                                   u4010 2318  
                                 u4011 2314                                   u4020 2358  
                                 u4100 2980                                   u4021 2354  
                                 u4101 297C                                   u4030 23A2  
                                 u4110 29A2                                   u4031 239E  
                                 u4111 299E                                   u5000 217A  
                                 u4040 23F6                                   u4120 29F8  
                                 u4200 1E24                                   u5001 2176  
                                 u4041 23F2                                   u4121 29F4  
                                 u5010 21C4                                   u4050 2428  
                                 u4130 2A06                                   u4210 1E36  
                                 _T2PR 000FBC                                   u5011 21C0  
                                 u4051 2424                                   u4131 2A02  
                                 u4211 1E32                                   u5020 21E2  
                                 u5100 1048                                   u4060 2466  
                                 u4140 2EA2                                   u4300 2060  
                                 u4220 1E64                                   u5021 21DE  
                                 u5101 1044                                   u4061 2462  
                                 u4141 2E9E                                   u4301 205C  
                                 u4221 1E60                                   u5030 21F2  
                                 u5110 1058                                   u4150 2F50  
                                 u4070 2490                                   u4310 2070  
                                 u4230 1E80                                   u5031 21EE  
                                 u5111 1054                                   u4151 2F4A  
                                 u4071 248C                                   u4311 206C  
                                 u4231 1E7C                                   u5040 2200  
                                 u5200 10F0                                   u5120 1068  
                                 u4160 2F52                                   u4320 2580  
                                 u4080 24BE                                   u4240 1EAC  
                                 u4400 1C1C                                   u5041 21FC  
                                 u5201 10EC                                   u5121 1064  
                                 u4321 257C                                   u4081 24BA  
                                 u4241 1EA8                                   u4401 1C18  
                                 u5050 223A                                   u5210 1108  
                                 u5130 1078                                   u4170 2DD4  
                                 u4330 25B4                                   u4090 2506  
                                 u4250 1EC2                                   u4410 1C60  
                                 u5051 2236                                   u5211 1104  
                                 u5131 1074                                   u4171 2DD0  
                                 u4331 25B0                                   u4091 2502  
                                 u4251 1EBE                                   u4411 1C5C  
                                 u4500 17D8                                   u5060 2248  
                                 u5300 11A0                                   u5220 1118  
                                 u5140 1088                                   u4180 2DF6  
                                 u4340 266E                                   u4260 2000  
                                 u4420 1CD8                                   u4501 17D4  
                                 u5061 2244                                   u5301 119C  
                                 u5221 1114                                   u5141 1084  
                                 u4181 2DF2                                   u4341 266A  
                                 u4261 1FFC                                   u4421 1CD4  
                                 u4510 181C                                   u5310 11B0  
                                 u5230 1128                                   u5150 10A0  
                                 u4350 2680                                   u4270 201E  
                                 u4190 1E22                                   u4430 1D08  
                                 u5070 2B3C                                   u4511 1818  
                                 u5311 11AC                                   u5231 1124  
                                 u5151 109C                                   u4351 267C  
                                 u4271 201A                                   u4191 1E1C  
                                 u4431 1D04                                   u5071 2B38  
                                 u4360 2E70                                   u4600 19BA  
                                 u4520 182E                                   u5400 1250  
                                 u5320 11C0                                   u5240 1138  
                                 u5160 10B0                                   u5080 100E  
                                 u4280 2038                                   u4440 1D28  
                                 u4361 2E68                                   u4601 19B6  
                                 u4521 182A                                   u5401 124C  
                                 u5321 11BC                                   u5241 1134  
                                 u5161 10AC                                   u5081 100A  
                                 u4281 2034                                   u4441 1D24  
                                 u4450 2FEC                                   u4610 19D8  
                                 u4530 183E                                   u5410 1260  
                                 u5330 11D8                                   u5250 1148  
                                 u5170 10C0                                   u5090 1038  
                                 u4290 2052                                   u4451 2FE8  
                                 u4611 19D4                                   u4531 183A  
                                 u5411 125C                                   u5331 11D4  
                                 u5251 1144                                   u5171 10BC  
                                 u5091 1034                                   u4291 204E  
                                 u4700 1B22                                   u4620 19F8  
                                 u4540 187E                                   u5500 12F8  
                                 u5420 1270                                   u5340 11E8  
                                 u5260 1158                                   u5180 10D0  
                                 u4460 31AA                                   u3900 28BA  
                                 u4380 1B5E                                   u4701 1B1E  
                                 u4621 19F4                                   u4541 187A  
                                 u5501 12F4                                   u5421 126C  
                                 u5341 11E4                                   u5261 1154  
                                 u5181 10CC                                   u4461 31A4  
                                 u3901 28B6                                   u4381 1B5A  
                                 u4630 1A0A                                   u4550 18BE  
                                 u4710 138C                                   u5510 1310  
                                 u5430 1280                                   u5350 11F8  
                                 u5270 1170                                   u5190 10E0  
                                 u4470 31AC                                   u3910 28CC  
                                 u4390 1BF4                                   u4631 1A06  
                                 u4551 18BA                                   u4711 1388  
                                 u5511 130C                                   u5431 127C  
                                 u5351 11F4                                   u5271 116C  
                                 u5191 10DC                                   u3911 28C8  
                                 u4391 1BF0                                   u4640 1A38  
                                 u4560 1934                                   u4480 17B6  
                                 u4800 162A                                   u4720 139E  
                                 u5520 1320                                   u5440 1290  
                                 u5360 1208                                   u5280 1180  
                                 u5600 31C4                                   u3920 28F4  
                                 u4641 1A34                                   u4561 1930  
                                 u4481 17B2                                   u4801 1626  
                                 u4721 139A                                   u5521 131C  
                                 u5441 128C                                   u5361 1204  
                                 u5281 117C                                   u3921 28F0  
                                 u5610 2F2A                                   u4378 2E72  
                                 u4650 1A4E                                   u4570 1956  
                                 u4490 17C8                                   u4810 164A  
                                 u4730 13AE                                   u5530 1330  
                                 u5450 12A8                                   u5370 1218  
                                 u5290 1190                                   u3930 292A  
                                 u5611 2F26                                   u4651 1A4A  
                                 u4571 1952                                   u4491 17C4  
                                 u4811 1646                                   u4731 13AA  
                                 u5531 132C                                   u5451 12A4  
                                 u5371 1214                                   u5291 118C  
                                 u3931 2926                                   u3940 303E  
                                 u4660 1A62                                   u4580 1980  
                                 u4820 165C                                   u4740 13EE  
                                 u4900 26BC                                   u5540 1340  
                                 u5460 12B8                                   u5380 1228  
                                 u5620 315C                                   u5700 2830  
                                 u3941 303A                                   u4661 1A5E  
                                 u4581 197C                                   u4821 1658  
                                 u4741 13EA                                   u4901 26B8  
                                 u5541 133C                                   u5461 12B4  
                                 u5381 1224                                   u5621 3158  
                                 u5701 282C                                   u3950 3054  
                                 u4670 1A7C                                   u4590 19A4  
                                 u4830 168A                                   u4750 1400  
                                 u4910 26F0                                   u5550 1350  
                                 u5470 12C8                                   u5390 1240  
                                 u5710 2842                                   u3951 3050  
                                 u4671 1A78                                   u4591 19A0  
                                 u4831 1686                                   u4751 13FC  
                                 u5551 134C                                   u5471 12C4  
                                 u5391 123C                                   u5711 283E  
                                 i2l24 3128                                   u4680 1AC4  
                                 u4840 16A0                                   u4760 1410  
                                 u4920 271E                                   u5560 1360  
                                 u5480 12D8                                   u3960 2E44  
                                 u4681 1AC0                                   u4841 169C  
                                 u4761 140C                                   u4921 271A  
                                 u5561 135C                                   u5481 12D4  
                                 u3961 2E40                                   u4690 1AF4  
                                 u4850 16B4                                   u4770 1446  
                                 u4930 2732                                   u5490 12E8  
                                 u3970 226E                                   u4691 1AF0  
                                 u4851 16B0                                   u4771 1442  
                                 u4931 272E                                   u4915 26E6  
                                 u5491 12E4                                   u3971 226A  
                                 u4860 16CE                                   u4780 1456  
                                 u4940 275A                                   u5580 2F68  
                                 u3980 22A0                                   u4861 16CA  
                                 u4781 1452                                   u4941 2756  
                                 u5581 2F64                                   u3981 229C  
                                 u4870 1716                                   u4790 15D0  
                                 u4950 277A                                   u5590 31C2  
                                 u4871 1712                                   u4951 2776  
                                 u5591 31BC                                   u3991 22CA  
                                 u5727 2892                                   u4880 1744  
                                 u4960 278A                                   u4881 1740  
                                 u4961 2786                                   u5737 101A  
                                 u4890 177E                                   u4970 20BA  
                                 i2l91 307C                                   u5747 2EDC  
                                 u4891 177A                                   u4795 15C6  
                                 u4971 20B6                                   u5691 27FC  
                                 u4980 20C8                                   u5757 2CEA  
                                 u4981 20C4                                   i2l94 3232  
                                 u4990 2124                                   u4991 2120  
                                 i2l88 3056                                   abs@a 001E  
                                 _dbuf 00B6                                   _atoi 2548  
                                 _main 27AC                                   _dtoa 1DF0  
                                 _prec 0049                                   pad@i 0023  
                                 pad@p 0020                                   fsr1h 000FE2  
                                 fsr2h 000FDA                                   indf2 000FDF  
                                 fsr1l 000FE1                                   pad@w 0025  
                                 fsr2l 000FD9                                   btemp 0054  
       ??i2_init_colorclick_interrupts 0005                      main@initial_color 0166  
                                 prodh 000FF4                                   prodl 000FF3  
                                 start 0058                   ?i2_color_writetoaddr 0003  
                      ___fldiv@new_exp 002B                            main@string2 013C  
               __end_of_color_read_Red 2BEA                        __end_of_HighISR 2A96  
                         ___param_bank 000000                                  ??_abs 0020  
                                ??_pad 0022                       __end_of_LED_init 31EA  
                        ___fltol@sign1 0047                        __end_of___aodiv 23E4  
                                ?_atoi 0012                                  ?_main 0001  
                                ?_dtoa 0027                        __end_of___aomod 2548  
                      __end_of___fldiv 1B36                        __end_of___flmul 179C  
                      __end_of___fltol 27AC                                  i2l100 3228  
                                i2l103 3200                                  i1l391 0048  
                                i2l402 2A8A                                  i2l290 31DC  
                                i2l283 2FAE                                  i2l276 302C  
                                i2l380 2D74                                  i2l383 3194  
                                i2l399 2A56                           vfpfcnvrt@fmt 003B  
                                _TMR0H 000FD4                                  _TMR0L 000FD3  
           __end_of_I2C_2_Master_Start 3220             __end_of_I2C_2_Master_Write 31F6  
                                _flags 004D                                  _fputc 28A8  
                                _fputs 2E02                        __end_of_isdigit 2F58  
                   _int_threshold_high 0052                                  atoi@n 0019  
                                pad@fp 001C                                  atoi@s 0012  
                                _width 00B2                                  _putch 323E  
                                dtoa@d 0029                                  dtoa@i 006F  
                                dtoa@n 0066                                  dtoa@p 0062  
                                dtoa@s 006E                                  dtoa@w 0064  
                      __end_of_isspace 2E02                                  tablat 000FF5  
                                plusw0 000FEB                                  plusw2 000FDB  
                                ttemp5 0055                                  ttemp6 0058  
                                ttemp7 005C                                  status 000FD8  
                                wtemp8 0055                        __end_of_sprintf 2B9A  
                  detect_color@tempval 006D                  ??i2_color_writetoaddr 0004  
              __end_of_color_read_Blue 2CDA                  _I2C_2_Master_RepStart 3202  
                   putCharToRxBuf@byte 0001                        ?_color_read_Red 0010  
                      __initialization 2D76                           __end_of_atoi 26A6  
                         __end_of_main 28A8                           __end_of_dtoa 20A8  
                 __end_of_detect_color 1370                        i2_isDataInTxBuf 31C6  
                   putCharToTxBuf@byte 000C    __end_of_interrupts_clear_colorclick 317C  
       ?i2_interrupts_clear_colorclick 0001            _interrupts_clear_colorclick 3162  
                               ??_atoi 0014                                 ??_main 009C  
                               ??_dtoa 0031                          __activetblptr 000003  
                               ?_fputc 000C                                 ?_fputs 0015  
                               _CCPR1H 000FAA                                 _CCPR2H 000FA6  
                               _CCPR3H 000F25                                 _CCPR4H 000F21  
                               ?_putch 0001                                 _RC0PPS 000E62  
                               _RC4REG 000EE3                                 _RE2PPS 000E74  
                               _RD5PPS 000E6F                                 _RC7PPS 000E69  
                               _RE4PPS 000E76                                 _RD6PPS 000E70  
                               i1l3680 0036                                 i1l3682 0044  
                               i1l3678 0026                                 i2l3350 2D42  
                               i2l3352 2D4C                                 i2l3354 2D56  
                               i2l3346 2D28                                 i2l3540 301A  
                               i2l2716 3056                                 i2l2820 3224  
                               i2l3356 2D60                                 i2l3348 2D32  
                               i2l3612 31C6                                 i2l3700 2A82  
                               i2l3550 2F94                                 i2l3542 302A  
                               i2l2718 3066                                 i2l2814 322A  
                               i2l2822 31F8                                 i2l3358 2D6A  
                               i2l3702 2A86                                 i2l3552 2F98  
                               i2l3536 3006                                 i2l2816 322E  
                               i2l2824 31FC                                 i2l3616 317C  
                               i2l3538 3016                                 i2l2818 3220  
                               i2l3548 2F84                                 i2l2926 310C  
                               i2l3690 2A3E                                 _RG6PPS 000E88  
                               i2l3692 2A52                                 i2l3684 2A24  
                               i2l3694 2A66                                 i2l3686 2A34  
                               i2l3696 2A6E                                 i2l3688 2A38  
                               i2l3698 2A7C                          vfpfcnvrt@done 0079  
                            ??_HighISR 0006               __end_of_color_click_init 2EFC  
                               _RX4PPS 000E15                                 _TX4REG 000EE4  
                     __end_of___xxtofl 225C                                 _LowISR 0018  
                        ??_Timer0_init 000C                           _CCPTMRS0bits 000FAD  
                         vfprintf@cfmt 0042                       _getCharFromRxBuf 2F58  
                     _getCharFromTxBuf 2F84                              ??___aodiv 001C  
                            ??___aomod 001C                                 ___wmul 307E  
                            ??___fldiv 0022                              ??___flmul 003B  
                            ??___fltol 0043                                 clear_0 2D94  
                               clear_1 2DA0                                 clear_2 2DAC  
                               isa$std 000001                                 pad@buf 001E  
                               dtoa@fp 0027                                 fputc@c 000C  
                    ?_TxBufferedString 000D                                 fputs@c 0019  
                               fputs@i 001A                           __pdataCOMRAM 0052  
                               fputs@s 0015                              ??_isdigit 000E  
                           _WhiteLight 3234                           __mediumconst 0000  
                            ??_isspace 000E                                 tblptrh 000FF7  
                               tblptrl 000FF6                                 tblptru 000FF8  
                   ??_TxBufferedString 000F                                 putch@c 0001  
                     __end_of_vfprintf 2B48                              ??_sprintf 0044  
           i2color_writetoaddr@address 0004                           ___xxtofl@arg 0016  
                         ___xxtofl@exp 0015                           ___xxtofl@val 000C  
                __end_of_isDataInRxBuf 31C6                  __end_of_isDataInTxBuf 31AE  
                        ??_Update_RGBC 0019                             __accesstop 0060  
              __end_of__initialization 2DB2               __end_of_color_read_Clear 2C8A  
             __end_of_color_read_Green 2C3A                 ?_I2C_2_Master_RepStart 0001  
              __end_ofi2_isDataInTxBuf 31DE                          ___rparam_used 000001  
                            ?_LED_init 0001                             ___fltol@f1 003F  
                     ?_color_read_Blue 0010                        _Interrupts_init 30A4  
                       __pcstackCOMRAM 0001                          __end_of_fputc 2972  
                    detect_color@color 0077                          __end_of_fputs 2E46  
                        __end_of_putch 3240                    __end_of_Timer0_init 30EA  
         ??_init_colorclick_interrupts 0010                                ??_fputc 0010  
                              ??_fputs 0019                                ??_putch 000C  
                           __pbssBANK0 009E                             __pbssBANK1 0100  
                           ??_LED_init 000C                                ?_LowISR 0001  
                    _color_writetoaddr 30EA                           _T2CLKCONbits 000FBF  
                  __end_of_Update_RGBC 2AF4                     ?_color_writetoaddr 000E  
                              ?___wmul 000C                    ??_color_writetoaddr 000F  
                              _INT1PPS 000DF1                              ?___xxtofl 000C  
                          ?_WhiteLight 0001                                _SP4BRGH 000EE6  
                              _SP4BRGL 000EE5                                _SSP2ADD 000ED6  
                              _SSP2BUF 000ED5                             _color_flag 00B5  
                         _detect_color 0E2A                __end_of_Interrupts_init 30CA  
               color_writetoaddr@value 000E                       ??_color_read_Red 0012  
                              _HighISR 0008              __end_of_color_writetoaddr 310A  
                     ?i2_isDataInTxBuf 0001                     _I2C_2_Master_Start 3216  
                           _initUSART4 312A                    i2_I2C_2_Master_Idle 3056  
                   _I2C_2_Master_Write 31EA                                __Hparam 0000  
                  i2_I2C_2_Master_Stop 3220                                __Lparam 0000  
                    color_read_Red@tmp 0015                            _Timer0_init 30CA  
                              ___aodiv 225C                                ___aomod 23E4  
                              ___fldiv 179C                                ___flmul 1370  
                              ___fltol 26A6                    ?_I2C_2_Master_Start 0001  
                  ?_I2C_2_Master_Write 0001                              ?_vfprintf 007D  
                         __psmallconst 0E00                                __pcinit 2D76  
                              __ramtop 0E00                                __ptext0 27AC  
                              __ptext1 2B48                                __ptext2 2AF4  
                              __ptext3 1B36                                __ptext4 1DF0  
                              __ptext5 2972                                __ptext6 2E02  
                              __ptext7 28A8                                __ptext8 323E  
                              __ptext9 2E88                   ?i2_I2C_2_Master_Idle 0001  
 __end_ofi2_init_colorclick_interrupts 2D76           i2_init_colorclick_interrupts 2D28  
                            _T2CONbits 000FBD                                _isdigit 2F2C  
                           ??___xxtofl 0010                   ?i2_I2C_2_Master_Stop 0001  
                              _isspace 2DBC                              _T2HLTbits 000FBE  
                        _RxBufWriteCnt 0051                                atoi@neg 0017  
             __end_of_getCharFromRxBuf 2F84               __end_of_getCharFromTxBuf 2FB0  
                              _tmr_ovf 00B4                                _sprintf 2B48  
                 ??_I2C_2_Master_Start 000D                   ??_I2C_2_Master_Write 000D  
                       __pintcode_body 2A1C                   end_of_initialization 2DB2  
                    __end_of_sendTxBuf 3162            __end_ofi2_color_writetoaddr 312A  
                   main@color_detected 0164                                fputc@fp 000E  
                              int_func 2A1C                                fputs@fp 0017  
                          _Update_RGBC 2A96                      ?_color_click_init 0001  
                   ??_color_click_init 0010                      __end_of_vfpfcnvrt 1DF0  
                              postdec2 000FDD                                postinc0 000FEE  
                              postinc1 000FE6                                postinc2 000FDE  
                     vfpfcnvrt@convarg 0071                             ??_vfprintf 0042  
                ??i2_I2C_2_Master_Idle 0001                  ??i2_I2C_2_Master_Stop 0002  
                        ___xxtofl@sign 0014                              _TRISAbits 000F81  
                            _TRISBbits 000F82                              _TRISCbits 000F83  
                            _TRISDbits 000F84     __end_of_init_colorclick_interrupts 2D28  
        ?i2_init_colorclick_interrupts 0001             _init_colorclick_interrupts 2CDA  
                            _TRISEbits 000F85                              _TRISFbits 000F86  
                            _TRISGbits 000F87                              _TRISHbits 000F88  
                          ___fldiv@grs 002D                            ___fldiv@rem 0026  
             color_writetoaddr@address 000F                ??_I2C_2_Master_RepStart 000D  
                     ?_Interrupts_init 0001                            ___flmul@grs 0062  
                          _CCP1CONbits 000FAB                      ?_color_read_Clear 0010  
                         _EUSART4RXbuf 009E                           _EUSART4TXbuf 0100  
                          _CCP2CONbits 000FA7                      ?_color_read_Green 0010  
                          _CCP3CONbits 000F26                            ?_initUSART4 0001  
                          _CCP4CONbits 000F22                     ??_color_read_Clear 0012  
                   ??_color_read_Green 0012                         __end_of_LowISR 0058  
                          vfpfcnvrt@ap 003D                            vfpfcnvrt@cp 007B  
                          vfpfcnvrt@fp 0039                         __end_of___wmul 30A4  
                        __pidataCOMRAM 323C                     detect_color@dist_B 007A  
                   detect_color@dist_G 0079                     detect_color@dist_R 0078  
                    _int_threshold_low 004B                    color_read_Clear@tmp 0015  
                  start_initialization 2D76                            __end_of_abs 2EC8  
                          __end_of_pad 2A1C                          _TxBufWriteCnt 004F  
                  color_read_Green@tmp 0015                               ??_LowISR 0009  
                          vfprintf@fmt 007F                               ??___wmul 0010  
                       _putCharToRxBuf 3004                         _putCharToTxBuf 2FDA  
        i2I2C_2_Master_Write@data_byte 0002                     Update_RGBC@tempval 0017  
         __end_ofi2_I2C_2_Master_Start 3234           __end_ofi2_I2C_2_Master_Write 3202  
                            ___fldiv@a 001E                              ___fldiv@b 001A  
                            ___flmul@a 0037                              ___flmul@b 0033  
                          __pbssCOMRAM 0049                           ??_WhiteLight 000C  
                        __pcstackBANK0 0060                          __pcstackBANK1 013C  
                     ___aodiv@dividend 000C                               ?_HighISR 0001  
                            _dtoa$2396 0060                           ?_Timer0_init 0001  
               __end_of_putCharToRxBuf 302E                 __end_of_putCharToTxBuf 3004  
                            __pintcode 0008                     __end_of_WhiteLight 323C  
                             ?___aodiv 000C                               ?___aomod 000C  
                             ?___fldiv 001A                       ___aodiv@quotient 001E  
                             ?___flmul 0033                               ?___fltol 003F  
               TxBufferedString@string 000D                            __pintcodelo 0018  
         ?_interrupts_clear_colorclick 0001                   I2C_2_Master_Read@ack 000E  
                 I2C_2_Master_Read@tmp 000F                            __smallconst 0E00  
                             ?_isdigit 000C                      _I2C_2_Master_Idle 302E  
                    _I2C_2_Master_Init 2FB0                      _I2C_2_Master_Read 2E46  
                    _I2C_2_Master_Stop 320C                               ?_isspace 000C  
                         _RxBufReadCnt 0050                     ?_I2C_2_Master_Idle 0001  
                   ?_I2C_2_Master_Init 0001                     ?_I2C_2_Master_Read 0001  
                   ?_I2C_2_Master_Stop 0001                      ?_getCharFromRxBuf 0001  
                             ?_sprintf 0083                      ?_getCharFromTxBuf 0001  
                   ??_getCharFromRxBuf 000C                     ??_getCharFromTxBuf 0001  
                  ??_I2C_2_Master_Idle 000C                    ??_I2C_2_Master_Init 000C  
                         ?_Update_RGBC 0017                    ??_I2C_2_Master_Read 000D  
                       ___wmul@product 0010                               _LATAbits 000F79  
                        _isDataInRxBuf 31AE                    ??_I2C_2_Master_Stop 000D  
                             _LATCbits 000F7B                          _isDataInTxBuf 3196  
                             _LATEbits 000F7D                               _LATFbits 000F7E  
                     _TxBufferedString 2EFC                               _LATGbits 000F7F  
                             _LATHbits 000F80                              _sendTxBuf 3148  
                             _IPR0bits 000E1F                               _PIE0bits 000E29  
                             _LED_init 31DE                               _PIE4bits 000E2D  
                             i1u382_20 0036                               i1u382_21 0032  
                             i2u226_40 3066                               i2u226_41 3062  
                             i2u227_40 307C                               i2u227_41 3078  
                             _PIR0bits 000E33                               HighISR@a 0008  
                             i2u371_40 2F94                               i2u371_41 2F90  
                             i2u374_40 31DA                               i2u374_41 31D4  
                             i2u375_40 31DC                               i2u383_40 2A34  
                             i2u383_41 2A30                               _PIR4bits 000E37  
                             i2u368_40 3016                               i2u384_40 2A52  
                             i2u368_41 3012                               i2u384_41 2A4E  
                             i2u385_40 2A66                               i2u385_41 2A62  
                             i2u386_40 2A7C                               i2u386_41 2A78  
                             i2u576_47 2D38                        ?_putCharToRxBuf 0001  
                      ?_putCharToTxBuf 0001                               _SSP2CON2 000EDA  
                             _SSP2STAT 000ED8                              _vfpfcnvrt 1B36  
            __end_of_I2C_2_Master_Idle 3056              __end_of_I2C_2_Master_Init 2FDA  
            __end_of_I2C_2_Master_Read 2E88                      ___wmul@multiplier 000C  
            __end_of_I2C_2_Master_Stop 3216            I2C_2_Master_Write@data_byte 000D  
        ??_interrupts_clear_colorclick 0011                      ??_color_read_Blue 0012  
                         _TxBufReadCnt 004E            ?_init_colorclick_interrupts 0001  
                         _isspace$2445 0010               i2color_writetoaddr@value 0003  
                       ?_isDataInRxBuf 0001                         ?_isDataInTxBuf 0001  
        __end_of_I2C_2_Master_RepStart 320C                     color_read_Blue@tmp 0015  
                           ?_sendTxBuf 0001                           ??_initUSART4 000C  
                 i2_I2C_2_Master_Start 322A                   i2_I2C_2_Master_Write 31F6  
                             __Hrparam 0000                             vfprintf@ap 0081  
                             __Lrparam 0000                             vfprintf@fp 007D  
          __end_ofi2_I2C_2_Master_Idle 307E            __end_ofi2_I2C_2_Master_Stop 322A  
                           ?_vfpfcnvrt 0039                        ___aodiv@divisor 0014  
                      ___aodiv@counter 001C                             _ANSELBbits 000E9A  
                           _ANSELDbits 000EA7                             sprintf@fmt 0085  
                             ___xxtofl 20A8                             _T0CON0bits 000FD5  
                           _T0CON1bits 000FD6                     __end_of_initUSART4 3148  
                             __ptext10 23E4                               __ptext11 225C  
                             __ptext20 2F58                               __ptext12 2548  
                             __ptext21 0E2A                               __ptext13 2DBC  
                             __ptext30 2B9A                               __ptext22 20A8  
                             __ptext14 2F2C                               __ptext31 2BEA  
                             __ptext23 26A6                               __ptext15 307E  
                             __ptext40 30A4                               __ptext32 2C3A  
                             __ptext24 1370                               __ptext16 3148  
                             __ptext41 3162                               __ptext33 2C8A  
                             __ptext25 179C                               __ptext17 3196  
                             __ptext50 31C6                               __ptext42 2CDA  
                             __ptext34 3202                               __ptext26 2EC8  
                             __ptext18 31AE                               __ptext51 317C  
                             __ptext43 30EA                               __ptext35 2E46  
                             __ptext27 2FB0                               __ptext19 312A  
                             __ptext52 2D28                               __ptext44 31EA  
                             __ptext36 2EFC                               __ptext28 3234  
                             __ptext53 310A                               __ptext45 320C  
                             __ptext37 2FDA                               __ptext29 2A96  
                             __ptext54 31F6                               __ptext46 3216  
                             __ptext38 30CA                               __ptext55 3220  
                             __ptext47 302E                               __ptext39 31DE  
                             __ptext56 322A                               __ptext57 3056  
                             __ptext58 3004                               __ptext59 2F84  
                         _SSP2CON1bits 000ED9                           _SSP2CON2bits 000EDA  
      ??i2_interrupts_clear_colorclick 0006                  ?i2_I2C_2_Master_Start 0001  
                ?i2_I2C_2_Master_Write 0001                               isa$xinst 000000  
                           _RC4STAbits 000EE7                               int$flags 0054  
                             _vfprintf 2AF4                               main@cont 0165  
                     ___aomod@dividend 000C                             _INTCONbits 000FF2  
                    ??i2_isDataInTxBuf 0001                               isdigit@c 000C  
                        ?_detect_color 006D                        ??_isDataInRxBuf 000C  
                      ??_isDataInTxBuf 000C                               intlevel1 0000  
                             intlevel2 0000                              sprintf@ap 008F  
                             isspace@c 000C                            ??_sendTxBuf 000C  
                      ___aomod@divisor 0014                            ??_vfpfcnvrt 003F  
                      ___aomod@counter 001C                       _color_click_init 2EC8  
             __end_of_TxBufferedString 2F2C                               sprintf@f 0091  
                             sprintf@s 0083                             _SSP2DATPPS 000E1D  
                           _SSP2CLKPPS 000E1C                         ??_detect_color 0075  
                           _TX4STAbits 000EE8                           ___aodiv@sign 001D  
               ??i2_I2C_2_Master_Start 0002                 ??i2_I2C_2_Master_Write 0002  
                     ??_putCharToRxBuf 0001                       ??_putCharToTxBuf 000C  
                         ___aomod@sign 001D  __end_ofi2_interrupts_clear_colorclick 3196  
        i2_interrupts_clear_colorclick 317C  
